
[Program]
2000: d8        -         cld 
2001: a9 cd     -         lda #$CD
2003: 8d 05 90  -         sta $9005 
2006: a9 08     -         lda #$08
2008: 8d 0f 90  -         sta $900F 
200b: a9 bc     -         lda #$BC
200d: 8d 03 90  -         sta $9003 
2010: a9 1a     -         lda #$1A
2012: 8d 01 90  -         sta $9001 
2015: a9 19     -         lda #$19
2017: 8d 02 90  -         sta $9002 
201a: a9 09     -         lda #$09
201c: 8d 00 90  -         sta $9000  
201f: 20 ed 20  -         jsr L_JSR_20ED_201F_OK
2022: 4c 60 30  -         jmp L_JMP_3060_2022_OK
2025: 4b 4b 4b 20 20 20 20 20                          - TitleScreen:.byte $4b,$4b,$4b,$20,$20,$20,$20,$20
202d: 20 20 20 41 42 43 44 45                          -         .byte $20,$20,$20,$41,$42,$43,$44,$45
2035: 20 20 20 20 20 4b 4b 4b                          -         .byte $20,$20,$20,$20,$20,$4b,$4b,$4b
203d: 20 20 20 20 20 20 20 20                          -         .byte $20,$20,$20,$20,$20,$20,$20,$20
2045: 20 20 20 20 46 47 48 49                          -         .byte $20,$20,$20,$20,$46,$47,$48,$49
204d: 4a 20 20 20 20 20 20 20                          -         .byte $4a,$20,$20,$20,$20,$20,$20,$20
2055: 20 20 5a 31 20 30 30 30                          -         .byte $20,$20,$5a,$31,$20,$30,$30,$30
205d: 30 30 20 20 20 20 20 20                          -         .byte $30,$30,$20,$20,$20,$20,$20,$20
2065: 20 20 20 5a 32 20 30 30                          -         .byte $20,$20,$20,$5a,$32,$20,$30,$30
206d: 30 30 30 20 20 20 20 20                          -         .byte $30,$30,$30,$20,$20,$20,$20,$20
2075: 20 20 20 20 6e 20 0c 0c                          -         .byte $20,$20,$20,$20,$6e,$20,$0c,$0c
207d: 01 0d 01 20 20 20 20 20                          -         .byte $01,$0d,$01,$20,$20,$20,$20,$20
2085: 20 20 20 20                                      -         .byte $20,$20,$20,$20
2089: 05 05 05 00 00 00 00 00                          - TitleScreenColour:.byte $05,$05,$05,$00,$00,$00,$00,$00
2091: 00 00 00 03 03 03 03 03                          -         .byte $00,$00,$00,$03,$03,$03,$03,$03
2099: 00 00 00 00 00 04 04 04                          -         .byte $00,$00,$00,$00,$00,$04,$04,$04
20a1: 00 00 00 00 00 00 00 00                          -         .byte $00,$00,$00,$00,$00,$00,$00,$00
20a9: 00 00 00 00 03 03 03 03                          -         .byte $00,$00,$00,$00,$03,$03,$03,$03
20b1: 03 00 00 00 00 00 00 00                          -         .byte $03,$00,$00,$00,$00,$00,$00,$00
20b9: 00 00 03 03 00 01 01 01                          -         .byte $00,$00,$03,$03,$00,$01,$01,$01
20c1: 01 01 00 00 00 00 00 00                          -         .byte $01,$01,$00,$00,$00,$00,$00,$00
20c9: 00 00 00 03 03 00 01 01                          -         .byte $00,$00,$00,$03,$03,$00,$01,$01
20d1: 01 01 01 00 00 00 00 00                          -         .byte $01,$01,$01,$00,$00,$00,$00,$00
20d9: 00 00 00 00 01 00 03 03                          -         .byte $00,$00,$00,$00,$01,$00,$03,$03
20e1: 03 03 03 00 00 00 00 00                          -         .byte $03,$03,$03,$00,$00,$00,$00,$00
20e9: 00 00 00 00                                      -         .byte $00,$00,$00,$00
20ed: a0 64     - L_JSR_20ED_201F_OK,L_JSR_20ED_3233_OK:ldy #$64
20ef: b9 24 20  - L_BRS_20EF_20FC_OK:lda $2024,Y 
20f2: 99 ff 0f  -         sta $0FFF,Y 
20f5: b9 88 20  -         lda $2088,Y 
20f8: 99 ff 93  -         sta $93FF,Y 
20fb: 88        -         dey 
20fc: d0 f1     -         bne L_BRS_20EF_20FC_OK
20fe: 60        -         rts 
20ff: ea        - L_JSR_20FF_337A_OK,L_JSR_20FF_3392_OK,L_JSR_20FF_33FA_OK:nop 
2100: a9 10     - L_JSR_2100_2203_OK,L_JSR_2100_2BA3_OK,L_JSR_2100_2D46_OK,L_JSR_2100_2E8C_OK:lda #$10
2102: 85 03     -         sta $03 
2104: 85 05     -         sta $05 
2106: a9 64     -         lda #$64
2108: 85 02     -         sta $02 
210a: 85 04     -         sta $04 
210c: a2 08     -         ldx #$08
210e: a0 17     - L_BRS_210E_2131_OK:ldy #$17
2110: a9 51     -         lda #$51
2112: 91 04     - L_BRS_2112_2115_OK:sta ($04),Y 
2114: 88        -         dey 
2115: d0 fb     -         bne L_BRS_2112_2115_OK
2117: a9 56     -         lda #$56
2119: a0 00     -         ldy #$00
211b: 91 04     -         sta ($04),Y 
211d: a9 57     -         lda #$57
211f: a0 18     -         ldy #$18
2121: 91 04     -         sta ($04),Y 
2123: 18        -         clc 
2124: a5 04     -         lda $04 
2126: 69 64     -         adc #$64
2128: 85 04     -         sta $04 
212a: a5 05     -         lda $05 
212c: 69 00     -         adc #$00
212e: 85 05     -         sta $05 
2130: ca        -         dex 
2131: d0 db     -         bne L_BRS_210E_2131_OK
2133: a5 02     -         lda $02 
2135: 85 04     -         sta $04 
2137: a5 03     -         lda $03 
2139: 85 05     -         sta $05 
213b: a0 00     -         ldy #$00
213d: a9 58     - L_BRS_213D_2178_OK:lda #$58
213f: 91 04     -         sta ($04),Y 
2141: a2 18     -         ldx #$18
2143: a5 04     - L_BRS_2143_2163_OK:lda $04 
2145: 18        -         clc 
2146: 69 19     -         adc #$19
2148: 85 04     -         sta $04 
214a: a5 05     -         lda $05 
214c: 69 00     -         adc #$00
214e: 85 05     -         sta $05 
2150: a9 50     -         lda #$50
2152: 85 06     -         sta $06 
2154: 20 95 21  -         jsr L_JSR_2195_2154_OK
2157: ea        -         nop 
2158: ea        -         nop 
2159: ea        -         nop 
215a: ea        -         nop 
215b: ea        -         nop 
215c: ea        -         nop 
215d: ea        -         nop 
215e: a5 06     -         lda $06 
2160: 91 04     -         sta ($04),Y 
2162: ca        -         dex 
2163: d0 de     -         bne L_BRS_2143_2163_OK
2165: a9 59     -         lda #$59
2167: 91 04     -         sta ($04),Y 
2169: a5 02     -         lda $02 
216b: 85 04     -         sta $04 
216d: a5 03     -         lda $03 
216f: 85 05     -         sta $05 
2171: c8        -         iny 
2172: c8        -         iny 
2173: c8        -         iny 
2174: c8        -         iny 
2175: ea        -         nop 
2176: c0 1c     -         cpy #$1C
2178: d0 c3     -         bne L_BRS_213D_2178_OK
217a: a9 52     -         lda #$52
217c: a0 00     -         ldy #$00
217e: 91 02     -         sta ($02),Y 
2180: a0 18     -         ldy #$18
2182: a9 53     -         lda #$53
2184: 91 02     -         sta ($02),Y 
2186: a9 55     -         lda #$55
2188: a0 00     -         ldy #$00
218a: 99 bc 12  -         sta $12BC,Y 
218d: a0 18     -         ldy #$18
218f: a9 54     -         lda #$54
2191: 99 bc 12  -         sta $12BC,Y 
2194: 60        -         rts 
2195: b1 04     - L_JSR_2195_2154_OK:lda ($04),Y 
2197: c9 51     -         cmp #$51
2199: d0 05     -         bne L_BRS_21A0_2199_OK
219b: a9 4f     -         lda #$4F
219d: 85 06     -         sta $06 
219f: 60        -         rts 
21a0: c9 56     - L_BRS_21A0_2199_OK:cmp #$56
21a2: d0 03     -         bne L_BRS_21A7_21A2_OK
21a4: 85 06     -         sta $06 
21a6: 60        -         rts 
21a7: c9 57     - L_BRS_21A7_21A2_OK:cmp #$57
21a9: d0 02     -         bne L_BRS_21AD_21A9_OK
21ab: 85 06     -         sta $06 
21ad: 60        - L_BRS_21AD_21A9_OK:rts 
21ae: a9 10     - L_JSR_21AE_2200_OK,L_JSR_21AE_2E89_OK,L_JSR_21AE_2F03_OK,L_JSR_21AE_3000_OK:lda #$10
21b0: 85 05     -         sta $05 
21b2: a9 64     -         lda #$64
21b4: 85 04     -         sta $04 
21b6: a2 1a     -         ldx #$1A
21b8: a0 00     - L_BRS_21B8_21D1_OK:ldy #$00
21ba: a9 20     - L_BRS_21BA_21C1_OK:lda #$20
21bc: 20 d4 21  -         jsr L_JSR_21D4_21BC_OK
21bf: c0 1a     -         cpy #$1A
21c1: d0 f7     -         bne L_BRS_21BA_21C1_OK
21c3: a5 04     -         lda $04 
21c5: 18        -         clc 
21c6: 69 19     -         adc #$19
21c8: 85 04     -         sta $04 
21ca: a5 05     -         lda $05 
21cc: 69 00     -         adc #$00
21ce: 85 05     -         sta $05 
21d0: ca        -         dex 
21d1: d0 e5     -         bne L_BRS_21B8_21D1_OK
21d3: 60        -         rts 
21d4: 91 04     - L_JSR_21D4_21BC_OK:sta ($04),Y 
21d6: a5 05     -         lda $05 
21d8: 48        -         pha 
21d9: 18        -         clc 
21da: 69 84     -         adc #$84
21dc: 85 05     -         sta $05 
21de: a9 07     -         lda #$07
21e0: 91 04     -         sta ($04),Y 
21e2: 68        -         pla 
21e3: 85 05     -         sta $05 
21e5: c8        -         iny 
21e6: 60        -         rts 
21e7: f5 f5 f5 f5 f5 f5                                -         .byte $F5,$F5,$F5,$F5,$F5,$F5
21ed: f5 f5 f5 f5 f5 f5                                -         .byte $F5,$F5,$F5,$F5,$F5,$F5
21f3: f5 f5 f5 f5 f5 f5                                -         .byte $F5,$F5,$F5,$F5,$F5,$F5
21f9: f5 f5 f5 f5 f5 f5                                -         .byte $F5,$F5,$F5,$F5,$F5,$F5
21ff: f5        -         .byte $F5
2200: 20 ae 21  - L_JMP_2200_3236_OK:jsr L_JSR_21AE_2200_OK
2203: 20 00 21  -         jsr L_JSR_2100_2203_OK
2206: a5 19     -         lda $19
2208: 85 19     -         sta $19
220a: a9 0f     -         lda #$0F
220c: 8d 0e 90  -         sta $900E 
220f: 20 0e 2e  -         jsr L_JSR_2E0E_220F_OK
2212: 20 1c 2c  -         jsr L_JSR_2C1C_2212_OK
2215: 20 dd 2d  -         jsr L_JSR_2DDD_2215_OK
2218: ea        -         nop 
2219: a9 03     -         lda #$03
221b: 85 0e     -         sta $0E 
221d: 85 0f     -         sta $0F 
221f: a5 0d     -         lda $0D 
2221: 85 0d     -         sta $0D 
2223: 85 08     -         sta $08 
2225: 20 20 29  -         jsr L_JSR_2920_2225_OK
2228: a9 03     -         lda #$03
222a: 85 14     -         sta $14 
222c: 85 13     -         sta $13 
222e: a5 05     -         lda $05 
2230: 85 2a     -         sta $2A 
2232: a9 10     -         lda #$10
2234: 85 1b     -         sta $1B 
2236: a5 19     -         lda $19 
2238: 85 19     -         sta $19 
223a: a9 00     -         lda #$00
223c: 85 17     -         sta $17 
223e: 85 18     -         sta $18 
2240: a9 03     -         lda #$03
2242: 85 20     -         sta $20 
2244: a9 1f     -         lda #$1F
2246: 85 21     -         sta $21 
2248: a5 19     -         lda $19 
224a: 85 00     -         sta $00 
224c: ea        -         nop 
224d: ea        -         nop 
224e: ea        -         nop 
224f: ea        -         nop 
2250: 20 c8 28  - L_JMP_2250_2265_OK,L_BRS_2250_2294_OK,L_JMP_2250_2E98_OK,L_JMP_2250_2EF8_OK:jsr L_JSR_28C8_2250_OK
2253: 20 60 25  -         jsr L_JSR_2560_2253_OK
2256: 20 e1 28  -         jsr L_JSR_28E1_2256_OK
2259: 20 0e 2a  -         jsr L_JSR_2A0E_2259_OK
225c: 20 3b 2a  -         jsr L_JSR_2A3B_225C_OK
225f: 20 11 2b  -         jsr L_JSR_2B11_225F_OK
2262: 20 9b 2e  -         jsr L_JSR_2E9B_2262_OK
2265: 4c 50 22  -         jmp L_JMP_2250_2265_OK
2268: ea        -         nop 
2269: ea        -         nop 
226a: ea        -         nop 
226b: ea        -         nop 
226c: ea        -         nop 
226d: ea        -         nop 
226e: ea        -         nop 
226f: ea        -         nop 
2270: ea        -         nop 
2271: ea        -         nop 
2272: ea        -         nop 
2273: ea        -         nop 
2274: ea        -         nop 
2275: ea        -         nop 
2276: ea        -         nop 
2277: ea        -         nop 
2278: ea        -         nop 
2279: ea        -         nop 
227a: ea        -         nop 
227b: ea        -         nop 
227c: ea        -         nop 
227d: ea        -         nop 
227e: ea        -         nop 
227f: ea        -         nop 
2280: ea        -         nop 
2281: ea        -         nop 
2282: ea        -         nop 
2283: ea        -         nop 
2284: ea        -         nop 
2285: ea        -         nop 
2286: ea        -         nop 
2287: ea        -         nop 
2288: ea        -         nop 
2289: ea        -         nop 
228a: ea        -         nop 
228b: ea        -         nop 
228c: ea        -         nop 
228d: ea        -         nop 
228e: ea        -         nop 
228f: ea        -         nop 
2290: ea        -         nop 
2291: 20 e1 ff  -         jsr $FFE1
2294: d0 ba     -         bne L_BRS_2250_2294_OK
2296: 60        -         rts 
2297: f5 f5 f5 f5 f5 f5 f5 f5                          -         .byte $f5,$f5,$f5,$f5,$f5,$f5,$f5,$f5
229f: f5 f5 f5 f5 f5 f5 f5 f5                          -         .byte $f5,$f5,$f5,$f5,$f5,$f5,$f5,$f5
22a7: f5 f5 f5 f5 f5 f5 f5 f5                          -         .byte $f5,$f5,$f5,$f5,$f5,$f5,$f5,$f5
22af: f5 f5 f5 f5 f5 f5 f5 f5                          -         .byte $f5,$f5,$f5,$f5,$f5,$f5,$f5,$f5
22b7: f5 f5 f5 f5 f5 f5 f5 f5                          -         .byte $f5,$f5,$f5,$f5,$f5,$f5,$f5,$f5
22bf: f5 f5 f5 f5 f5 f5 f5 f5                          -         .byte $f5,$f5,$f5,$f5,$f5,$f5,$f5,$f5
22c7: f5 f5 f5 f5 f5 f5 f5 f5                          -         .byte $f5,$f5,$f5,$f5,$f5,$f5,$f5,$f5
22cf: f5 ea f5 f5 f5 f5 f5 f5                          -         .byte $f5,$ea,$f5,$f5,$f5,$f5,$f5,$f5
22d7: f5 f5 f5 f5 f5 f5 f5 f5                          -         .byte $f5,$f5,$f5,$f5,$f5,$f5,$f5,$f5
22df: f5 f5 f5 f5 f5 f5 f5 f5                          -         .byte $f5,$f5,$f5,$f5,$f5,$f5,$f5,$f5
22e7: f5 f5 f5 f5 f5 f5 f5 f5                          -         .byte $f5,$f5,$f5,$f5,$f5,$f5,$f5,$f5
22ef: f5 f5 f5 f5 f5 f5 f5 f5                          -         .byte $f5,$f5,$f5,$f5,$f5,$f5,$f5,$f5
22f7: f5 f5 f5 f5 f5 f5 f5 f5                          -         .byte $f5,$f5,$f5,$f5,$f5,$f5,$f5,$f5
22ff: f5        -         .byte $f5
2300: 96 10 00 07 50 39 11 01                          -         .byte $96,$10,$00,$07,$50,$39,$11,$01
2308: b7 51 f8 11 01 87 4f 06                          -         .byte $b7,$51,$f8,$11,$01,$87,$4f,$06
2310: 12 01 b7 51 a2 10 00 07                          -         .byte $12,$01,$b7,$51,$a2,$10,$00,$07
2318: 50 a6 10 00 b7 50 aa 10                          -         .byte $50,$a6,$10,$00,$b7,$50,$aa,$10
2320: 00 27 50 ae 10 00 27 50                          -         .byte $00,$27,$50,$ae,$10,$00,$27,$50
2328: af 10 02 b7 50 c7 10 02                          -         .byte $af,$10,$02,$b7,$50,$c7,$10,$02
2330: 07 50 00 00 00 e3 00 00                          -         .byte $07,$50,$00,$00,$00,$e3,$00,$00
2338: 5b 5c 5d 5e 5f 60 61 e4                          -         .byte $5b,$5c,$5d,$5e,$5f,$60,$61,$e4
2340: 01 19 00 00 00 00 00 00                          -         .byte $01,$19,$00,$00,$00,$00,$00,$00
2348: 56 01 02 03 00 58 00 02                          -         .byte $56,$01,$02,$03,$00,$58,$00,$02
2350: 03 04 4f 01 02 03 04 63                          -         .byte $03,$04,$4f,$01,$02,$03,$04,$63
2358: 01 02 03 04 64 01 02 03                          -         .byte $01,$02,$03,$04,$64,$01,$02,$03
2360: 04 6f 01 02 03 04 59 01                          -         .byte $04,$6f,$01,$02,$03,$04,$59,$01
2368: 02 00 04 57 01 00 03 04                          -         .byte $02,$00,$04,$57,$01,$00,$03,$04
2370: 52 00 02 03 00 53 00 00                          -         .byte $52,$00,$02,$03,$00,$53,$00,$00
2378: 03 04 54 01 00 00 04 55                          -         .byte $03,$04,$54,$01,$00,$00,$04,$55
2380: 01 02 00 00 00 00 00 00                          -         .byte $01,$02,$00,$00,$00,$00,$00,$00
2388: 00 00 00 00 00 00 00 00                          -         .byte $00,$00,$00,$00,$00,$00,$00,$00
2390: a5 00     - L_JMP_2390_2F52_OK:lda $00 
2392: 85 fd     -         sta $FD 
2394: a2 00     - L_BRS_2394_23B2_OK:ldx #$00
2396: a4 fd     -         ldy $FD 
2398: e8        - L_BRS_2398_239E_OK:inx 
2399: e8        -         inx 
239a: e8        -         inx 
239b: e8        -         inx 
239c: e8        -         inx 
239d: 88        -         dey 
239e: d0 f8     -         bne L_BRS_2398_239E_OK
23a0: bd 00 23  -         lda $2300,X 
23a3: 85 01     -         sta $01 
23a5: bd 01 23  -         lda $2301,X 
23a8: 85 02     -         sta $02 
23aa: 20 b5 23  -         jsr L_JSR_23B5_23AA_OK
23ad: 20 ce 23  -         jsr L_JSR_23CE_23AD_OK
23b0: c6 fd     -         dec $FD 
23b2: d0 e0     -         bne L_BRS_2394_23B2_OK
23b4: 60        -         rts 
23b5: 8a        - L_JSR_23B5_23AA_OK:txa 
23b6: 48        -         pha 
23b7: bd 02 23  -         lda $2302,X 
23ba: aa        -         tax 
23bb: bd 38 23  -         lda $2338,X 
23be: 91 01     -         sta ($01),Y 
23c0: a5 02     -         lda $02 
23c2: 18        -         clc 
23c3: 69 84     -         adc #$84
23c5: 85 02     -         sta $02 
23c7: a9 03     -         lda #$03
23c9: 91 01     -         sta ($01),Y 
23cb: 68        -         pla 
23cc: aa        -         tax 
23cd: 60        -         rts 
23ce: 8a        - L_JSR_23CE_23AD_OK:txa 
23cf: 48        -         pha 
23d0: 98        -         tya 
23d1: 48        -         pha 
23d2: a2 80     -         ldx #$80
23d4: 8e 0d 90  - L_BRS_23D4_23D8_OK,L_BRS_23D4_23DB_OK:stx $900D 
23d7: 88        -         dey 
23d8: d0 fa     -         bne L_BRS_23D4_23D8_OK
23da: e8        -         inx 
23db: d0 f7     -         bne L_BRS_23D4_23DB_OK
23dd: 8e 0d 90  - L_BRS_23DD_23E1_OK,L_BRS_23DD_23E6_OK:stx $900D 
23e0: 88        -         dey 
23e1: d0 fa     -         bne L_BRS_23DD_23E1_OK
23e3: ca        -         dex 
23e4: e0 7e     -         cpx #$7E
23e6: d0 f5     -         bne L_BRS_23DD_23E6_OK
23e8: 68        -         pla 
23e9: a8        -         tay 
23ea: 68        -         pla 
23eb: aa        -         tax 
23ec: 60        -         rts 
23ed: 00 00 00  -         .byte $00,$00,$00
23f0: bd 00 23  - L_JSR_23F0_251E_OK:lda $2300,X 
23f3: 85 01     -         sta $01 
23f5: bd 01 23  -         lda $2301,X 
23f8: 85 02     -         sta $02 
23fa: a9 00     -         lda #$00
23fc: 85 03     -         sta $03 
23fe: 18        -         clc 
23ff: b1 01     -         lda ($01),Y 
2401: 29 04     -         and #$04
2403: d0 04     -         bne L_BRS_2409_2403_OK
2405: a9 04     -         lda #$04
2407: 85 03     -         sta $03 
2409: bd 04 23  - L_BRS_2409_2403_OK:lda $2304,X 
240c: 91 01     -         sta ($01),Y 
240e: a5 02     -         lda $02 
2410: 18        -         clc 
2411: 69 84     -         adc #$84
2413: 85 02     -         sta $02 
2415: bd 03 23  -         lda $2303,X 
2418: 91 01     -         sta ($01),Y 
241a: bd 02 23  - L_JMP_241A_2559_OK:lda $2302,X 
241d: c9 00     -         cmp #$00
241f: f0 1e     -         beq L_BRS_243F_241F_OK
2421: c9 02     -         cmp #$02
2423: f0 1a     -         beq L_BRS_243F_2423_OK
2425: c9 01     -         cmp #$01
2427: d0 0b     -         bne L_BRS_2434_2427_OK
2429: fe 00 23  -         inc $2300,X 
242c: d0 03     -         bne L_BRS_2431_242C_OK
242e: fe 01 23  -         inc $2301,X 
2431: 4c 68 24  - L_BRS_2431_242C_OK:jmp L_JMP_2468_2431_OK
2434: a0 01     - L_BRS_2434_2427_OK:ldy #$01
2436: 20 32 25  -         jsr L_JSR_2532_2436_OK
2439: ea        -         nop 
243a: ea        -         nop 
243b: ea        -         nop 
243c: 4c 68 24  -         jmp L_JMP_2468_243C_OK
243f: c9 02     - L_BRS_243F_241F_OK,L_BRS_243F_2423_OK:cmp #$02
2441: f0 14     -         beq L_BRS_2457_2441_OK
2443: ea        -         nop 
2444: ea        -         nop 
2445: ea        -         nop 
2446: 20 30 25  -         jsr L_JSR_2530_2446_OK
2449: ea        -         nop 
244a: ea        -         nop 
244b: ea        -         nop 
244c: ea        -         nop 
244d: ea        -         nop 
244e: ea        -         nop 
244f: ea        -         nop 
2450: ea        -         nop 
2451: ea        -         nop 
2452: ea        -         nop 
2453: ea        -         nop 
2454: 4c 68 24  -         jmp L_JMP_2468_2454_OK
2457: bd 00 23  - L_BRS_2457_2441_OK:lda $2300,X 
245a: 18        -         clc 
245b: 69 19     -         adc #$19
245d: 9d 00 23  -         sta $2300,X 
2460: bd 01 23  -         lda $2301,X 
2463: 69 00     -         adc #$00
2465: 9d 01 23  -         sta $2301,X 
2468: bd 00 23  - L_JMP_2468_2431_OK,L_JMP_2468_243C_OK,L_JMP_2468_2454_OK:lda $2300,X 
246b: 85 01     -         sta $01 
246d: bd 01 23  -         lda $2301,X 
2470: 85 02     -         sta $02 
2472: b1 01     -         lda ($01),Y 
2474: c9 50     -         cmp #$50
2476: f0 60     -         beq L_BRS_24D8_2476_OK
2478: c9 51     -         cmp #$51
247a: f0 5c     -         beq L_BRS_24D8_247A_OK
247c: 85 04     -         sta $04 
247e: 8a        -         txa 
247f: 48        -         pha 
2480: a0 0c     -         ldy #$0C
2482: a2 00     -         ldx #$00
2484: bd 48 23  - L_BRS_2484_2491_OK:lda $2348,X 
2487: c5 04     -         cmp $04 
2489: f0 0a     -         beq L_BRS_2495_2489_OK
248b: e8        -         inx 
248c: e8        -         inx 
248d: e8        -         inx 
248e: e8        -         inx 
248f: e8        -         inx 
2490: 88        -         dey 
2491: d0 f1     -         bne L_BRS_2484_2491_OK
2493: f0 73     -         beq L_BRS_2508_2493_OK
2495: 86 06     - L_BRS_2495_2489_OK:stx $06 
2497: 68        -         pla 
2498: aa        -         tax 
2499: a9 03     -         lda #$03
249b: 20 db 28  -         jsr L_JSR_28DB_249B_OK
249e: ea        -         nop 
249f: 29 01     -         and #$01
24a1: f0 04     -         beq L_BRS_24A7_24A1_OK
24a3: a9 01     -         lda #$01
24a5: 85 05     -         sta $05 
24a7: a4 05     - L_BRS_24A7_24A1_OK:ldy $05 
24a9: fe 02 23  - L_BRS_24A9_24B9_OK,L_JMP_24A9_24D3_OK:inc $2302,X 
24ac: bd 02 23  -         lda $2302,X 
24af: c9 04     -         cmp #$04
24b1: d0 05     -         bne L_BRS_24B8_24B1_OK
24b3: a9 00     -         lda #$00
24b5: 9d 02 23  -         sta $2302,X 
24b8: 88        - L_BRS_24B8_24B1_OK:dey 
24b9: d0 ee     -         bne L_BRS_24A9_24B9_OK
24bb: 8a        -         txa 
24bc: 48        -         pha 
24bd: bd 02 23  -         lda $2302,X 
24c0: 85 07     -         sta $07 
24c2: a5 06     -         lda $06 
24c4: 18        -         clc 
24c5: 65 07     -         adc $07 
24c7: aa        -         tax 
24c8: bd 49 23  -         lda $2349,X 
24cb: c9 00     -         cmp #$00
24cd: d0 07     -         bne L_BRS_24D6_24CD_OK
24cf: 68        -         pla 
24d0: aa        -         tax 
24d1: a0 02     -         ldy #$02
24d3: 4c a9 24  -         jmp L_JMP_24A9_24D3_OK
24d6: 68        - L_BRS_24D6_24CD_OK:pla 
24d7: aa        -         tax 
24d8: bd 00 23  - L_BRS_24D8_2476_OK,L_BRS_24D8_247A_OK:lda $2300,X 
24db: 85 01     -         sta $01 
24dd: bd 01 23  -         lda $2301,X 
24e0: 85 02     -         sta $02 
24e2: b1 01     -         lda ($01),Y 
24e4: 9d 04 23  -         sta $2304,X 
24e7: 8a        -         txa 
24e8: 48        -         pha 
24e9: bd 02 23  -         lda $2302,X 
24ec: 18        -         clc 
24ed: 65 03     -         adc $03 
24ef: aa        -         tax 
24f0: bd 38 23  -         lda $2338,X 
24f3: 91 01     -         sta ($01),Y 
24f5: 68        -         pla 
24f6: aa        -         tax 
24f7: a5 02     -         lda $02 
24f9: 18        -         clc 
24fa: 69 84     -         adc #$84
24fc: 85 02     -         sta $02 
24fe: b1 01     - L_JSR_24FF_3384_BAD:lda ($01),Y 
2500: 9d 03 23  -         sta $2303,X 
2503: a5 20     -         lda $20 
2505: 91 01     -         sta ($01),Y 
2507: 60        -         rts 
2508: 4c f8 2b  - L_BRS_2508_2493_OK:jmp L_JMP_2BF8_2508_OK
250b: 00 00 00 00 00                                   -         .byte $00,$00,$00,$00,$00
2510: a0 00     - L_JSR_2510_25E0_OK:ldy #$00
2512: a5 00     -         lda $00 
2514: 85 fd     -         sta $FD 
2516: a5 fd     - L_BRS_2516_2523_OK:lda $FD 
2518: 0a        -         asl  
2519: 0a        -         asl  
251a: 18        -         clc 
251b: 65 fd     -         adc $FD 
251d: aa        -         tax 
251e: 20 f0 23  -         jsr L_JSR_23F0_251E_OK
2521: c6 fd     -         dec $FD 
2523: d0 f1     -         bne L_BRS_2516_2523_OK
2525: 60        -         rts 
2526: c6 08     - L_JMP_2526_28D1_OK:dec $08 
2528: f0 01     -         beq L_BRS_252B_2528_OK
252a: 60        -         rts 
252b: 4c d4 28  - L_BRS_252B_2528_OK:jmp L_JMP_28D4_252B_OK
252e: 00 00     -         .byte $00,$00
2530: a0 19     - L_JSR_2530_2446_OK:ldy #$19
2532: de 00 23  - L_JSR_2532_2436_OK,L_BRS_2532_2540_OK:dec $2300,X 
2535: bd 00 23  -         lda $2300,X 
2538: c9 ff     -         cmp #$FF
253a: d0 03     -         bne L_BRS_253F_253A_OK
253c: de 01 23  -         dec $2301,X 
253f: 88        - L_BRS_253F_253A_OK:dey 
2540: d0 f0     -         bne L_BRS_2532_2540_OK
2542: 60        -         rts 
2543: 68        - L_JMP_2543_2C04_OK:pla 
2544: aa        -         tax 
2545: a0 02     -         ldy #$02
2547: fe 02 23  - L_BRS_2547_2557_OK:inc $2302,X 
254a: bd 02 23  -         lda $2302,X 
254d: c9 04     -         cmp #$04
254f: d0 05     -         bne L_BRS_2556_254F_OK
2551: a9 00     -         lda #$00
2553: 9d 02 23  -         sta $2302,X 
2556: 88        - L_BRS_2556_254F_OK:dey 
2557: d0 ee     -         bne L_BRS_2547_2557_OK
2559: 4c 1a 24  -         jmp L_JMP_241A_2559_OK
255c: 00 00 00 00                                      -         .byte $00,$00,$00,$00
2560: 78        - L_JSR_2560_2253_OK,L_JSR_2560_3079_OK:sei 
2561: a2 7f     -         ldx #$7F
2563: 8e 22 91  -         stx $9122 
2566: ac 20 91  - L_BRS_2566_256C_OK:ldy $9120 
2569: cc 20 91  -         cpy $9120 
256c: d0 f8     -         bne L_BRS_2566_256C_OK
256e: a2 ff     -         ldx #$FF
2570: 8e 22 91  -         stx $9122 
2573: a2 f7     -         ldx #$F7
2575: 8e 20 91  -         stx $9120 
2578: 58        -         cli 
2579: ad 1f 91  - L_BRS_2579_257F_OK:lda $911F 
257c: cd 1f 91  -         cmp $911F 
257f: d0 f8     -         bne L_BRS_2579_257F_OK
2581: 48        -         pha 
2582: 29 1c     -         and #$1C
2584: 4a        -         lsr  
2585: c0 80     -         cpy #$80
2587: 90 02     -         bcc L_BRS_258B_2587_OK
2589: 09 10     -         ora #$10
258b: a8        - L_BRS_258B_2587_OK:tay 
258c: 68        -         pla 
258d: 29 20     -         and #$20
258f: c9 20     -         cmp #$20
2591: 98        -         tya 
2592: 6a        -         ror  
2593: 49 8f     -         eor #$8F
2595: 85 0a     -         sta $0A 
2597: 60        -         rts 
2598: 00 00 00 00 00 00 00 00                          -         .byte $00,$00,$00,$00,$00,$00,$00,$00
25a0: a9 c7     - L_JMP_25A0_2BA6_OK,L_JSR_25A0_2D5E_OK,L_JSR_25A0_2D61_OK,L_JMP_25A0_2E20_OK,L_JSR_25A0_2E8F_OK:lda #$C7
25a2: 85 01     -         sta $01 
25a4: a9 96     -         lda #$96
25a6: 85 02     -         sta $02 
25a8: a0 05     -         ldy #$05
25aa: a9 02     -         lda #$02
25ac: 91 01     - L_BRS_25AC_25AF_OK:sta ($01),Y 
25ae: 88        -         dey 
25af: d0 fb     -         bne L_BRS_25AC_25AF_OK
25b1: e6 01     -         inc $01 
25b3: e6 01     -         inc $01 
25b5: a5 01     -         lda $01 
25b7: 8d 00 26  -         sta $2600 
25ba: a9 12     -         lda #$12
25bc: 8d 01 26  -         sta $2601 
25bf: a9 51     -         lda #$51
25c1: 8d 02 26  -         sta $2602 
25c4: a9 01     -         lda #$01
25c6: 8d 03 26  -         sta $2603 
25c9: a9 00     -         lda #$00
25cb: 8d 04 26  -         sta $2604 
25ce: a9 12     -         lda #$12
25d0: 85 02     -         sta $02 
25d2: a9 4c     -         lda #$4C
25d4: 91 01     -         sta ($01),Y 
25d6: a9 02     -         lda #$02
25d8: 8d 08 26  -         sta $2608 
25db: 60        -         rts 
25dc: 00 00 00 00                                      -         .byte $00,$00,$00,$00
25e0: 20 10 25  - L_JMP_25E0_28D8_OK:jsr L_JSR_2510_25E0_OK
25e3: 4c 20 26  -         jmp L_JMP_2620_25E3_OK
25e6: 00 00 00 00 00 00 00 00                          -         .byte $00,$00,$00,$00,$00,$00,$00,$00
25ee: 00 00 00 00 00 00 00 00                          -         .byte $00,$00,$00,$00,$00,$00,$00,$00
25f6: 00 00 00 00 00 00 00 00                          -         .byte $00,$00,$00,$00,$00,$00,$00,$00
25fe: 00 04 a6 10 50 00                                -         .byte $00,$04,$A6,$10,$50,$00
2604: 00 00 00 00 07                                   -         .byte $00,$00,$00,$00,$07
2609: 4b 4c 4d 4e                                      -         .byte $4B,$4C,$4D,$4E
260d: 00 00 00 00 00 00 00 00                          -         .byte $00,$00,$00,$00,$00,$00,$00,$00
2615: 00 00 00 00 00 00 00 00                          -         .byte $00,$00,$00,$00,$00,$00,$00,$00
261d: 00 00 00  -         .byte $00,$00,$00
2620: ad 00 26  - L_JMP_2620_25E3_OK,L_JMP_2620_2BB4_OK:lda $2600 
2623: 85 01     -         sta $01 
2625: ad 01 26  -         lda $2601 
2628: 85 02     -         sta $02 
262a: a0 00     -         ldy #$00
262c: b1 01     -         lda ($01),Y 
262e: ae 03 26  -         ldx $2603 
2631: dd 09 26  -         cmp $2609,X 
2634: f0 03     -         beq L_BRS_2639_2634_OK
2636: 4c 91 2b  -         jmp L_JMP_2B91_2636_OK
2639: a9 00     - L_BRS_2639_2634_OK:lda #$00
263b: 85 0b     -         sta $0B 
263d: ad 02 26  -         lda $2602 
2640: 91 01     -         sta ($01),Y 
2642: a5 02     -         lda $02 
2644: 18        -         clc 
2645: 69 84     -         adc #$84
2647: 85 02     -         sta $02 
2649: ad 08 26  -         lda $2608 
264c: 91 01     -         sta ($01),Y 
264e: ad 02 26  -         lda $2602 
2651: c9 50     -         cmp #$50
2653: d0 07     -         bne L_BRS_265C_2653_OK
2655: a9 03     -         lda #$03
2657: 85 0b     -         sta $0B 
2659: 4c a7 26  -         jmp L_JMP_26A7_2659_OK
265c: c9 51     - L_BRS_265C_2653_OK:cmp #$51
265e: d0 07     -         bne L_BRS_2667_265E_OK
2660: a9 0c     -         lda #$0C
2662: 85 0b     -         sta $0B 
2664: 4c a7 26  -         jmp L_JMP_26A7_2664_OK
2667: a2 00     - L_BRS_2667_265E_OK:ldx #$00
2669: a0 0c     -         ldy #$0C
266b: ad 02 26  -         lda $2602 
266e: dd 48 23  - L_BRS_266E_2679_OK:cmp $2348,X 
2671: f0 08     -         beq L_BRS_267B_2671_OK
2673: e8        -         inx 
2674: e8        -         inx 
2675: e8        -         inx 
2676: e8        -         inx 
2677: e8        -         inx 
2678: 88        -         dey 
2679: d0 f3     -         bne L_BRS_266E_2679_OK
267b: bd 49 23  - L_BRS_267B_2671_OK:lda $2349,X 
267e: f0 06     -         beq L_BRS_2686_267E_OK
2680: a9 01     -         lda #$01
2682: 05 0b     -         ora $0B
2684: 85 0b     -         sta $0B 
2686: bd 4a 23  - L_BRS_2686_267E_OK:lda $234A,X 
2689: f0 06     -         beq L_BRS_2691_2689_OK
268b: a9 08     -         lda #$08
268d: 05 0b     -         ora $0B
268f: 85 0b     -         sta $0B 
2691: bd 4b 23  - L_BRS_2691_2689_OK:lda $234B,X 
2694: f0 06     -         beq L_BRS_269C_2694_OK
2696: a9 02     -         lda #$02
2698: 05 0b     -         ora $0B
269a: 85 0b     -         sta $0B 
269c: bd 4c 23  - L_BRS_269C_2694_OK:lda $234C,X 
269f: f0 06     -         beq L_BRS_26A7_269F_OK
26a1: a9 04     -         lda #$04
26a3: 05 0b     -         ora $0B
26a5: 85 0b     -         sta $0B 
26a7: ea        - L_JMP_26A7_2659_OK,L_JMP_26A7_2664_OK,L_BRS_26A7_269F_OK:nop 
26a8: ea        -         nop 
26a9: ea        -         nop 
26aa: ea        -         nop 
26ab: ea        -         nop 
26ac: ea        -         nop 
26ad: a5 0a     -         lda $0A 
26af: 29 0f     -         and #$0F
26b1: f0 7a     -         beq L_BRS_272D_26B1_OK
26b3: a5 0a     -         lda $0A 
26b5: 25 0b     -         and $0B
26b7: 85 0b     -         sta $0B 
26b9: a5 0b     -         lda $0B 
26bb: f0 70     -         beq L_BRS_272D_26BB_OK
26bd: 29 01     -         and #$01
26bf: f0 1a     -         beq L_BRS_26DB_26BF_OK
26c1: a0 19     -         ldy #$19
26c3: ce 00 26  - L_BRS_26C3_26D1_OK:dec $2600 
26c6: ad 00 26  -         lda $2600 
26c9: c9 ff     -         cmp #$FF
26cb: d0 03     -         bne L_BRS_26D0_26CB_OK
26cd: ce 01 26  -         dec $2601 
26d0: 88        - L_BRS_26D0_26CB_OK:dey 
26d1: d0 f0     -         bne L_BRS_26C3_26D1_OK
26d3: a9 00     -         lda #$00
26d5: 8d 03 26  -         sta $2603 
26d8: 4c 2d 27  -         jmp L_JMP_272D_26D8_OK
26db: a5 0b     - L_BRS_26DB_26BF_OK:lda $0B 
26dd: 29 08     -         and #$08
26df: f0 10     -         beq L_BRS_26F1_26DF_OK
26e1: ee 00 26  -         inc $2600 
26e4: d0 03     -         bne L_BRS_26E9_26E4_OK
26e6: ee 01 26  -         inc $2601 
26e9: a9 01     - L_BRS_26E9_26E4_OK:lda #$01
26eb: 8d 03 26  -         sta $2603 
26ee: 4c 2d 27  -         jmp L_JMP_272D_26EE_OK
26f1: a5 0b     - L_BRS_26F1_26DF_OK:lda $0B 
26f3: 29 02     -         and #$02
26f5: f0 19     -         beq L_BRS_2710_26F5_OK
26f7: ad 00 26  -         lda $2600 
26fa: 18        -         clc 
26fb: 69 19     -         adc #$19
26fd: 8d 00 26  -         sta $2600 
2700: ad 01 26  -         lda $2601 
2703: 69 00     -         adc #$00
2705: 8d 01 26  -         sta $2601 
2708: a9 02     -         lda #$02
270a: 8d 03 26  -         sta $2603 
270d: 4c 2d 27  -         jmp L_JMP_272D_270D_OK
2710: a5 0b     - L_BRS_2710_26F5_OK:lda $0B 
2712: 29 04     -         and #$04
2714: f0 17     -         beq L_BRS_272D_2714_OK
2716: ce 00 26  -         dec $2600 
2719: ad 00 26  -         lda $2600 
271c: c9 ff     -         cmp #$FF
271e: d0 03     -         bne L_BRS_2723_271E_OK
2720: ce 01 26  -         dec $2601 
2723: a9 03     - L_BRS_2723_271E_OK:lda #$03
2725: 8d 03 26  -         sta $2603 
2728: ea        -         nop 
2729: ea        -         nop 
272a: ea        -         nop 
272b: ea        -         nop 
272c: ea        -         nop 
272d: a0 00     - L_BRS_272D_26B1_OK,L_BRS_272D_26BB_OK,L_JMP_272D_26D8_OK,L_JMP_272D_26EE_OK,L_JMP_272D_270D_OK,L_BRS_272D_2714_OK:ldy #$00
272f: ea        -         nop 
2730: ad 00 26  -         lda $2600 
2733: 85 01     -         sta $01 
2735: ad 01 26  -         lda $2601 
2738: 85 02     -         sta $02 
273a: b1 01     -         lda ($01),Y 
273c: a2 08     -         ldx #$08
273e: dd 37 23  - L_BRS_273E_2747_OK:cmp $2337,X 
2741: d0 03     -         bne L_BRS_2746_2741_OK
2743: 4c 91 2b  -         jmp L_JMP_2B91_2743_OK
2746: ca        - L_BRS_2746_2741_OK:dex 
2747: d0 f5     -         bne L_BRS_273E_2747_OK
2749: 8d 02 26  -         sta $2602 
274c: a5 02     -         lda $02 
274e: 18        -         clc 
274f: 69 84     -         adc #$84
2751: 85 02     -         sta $02 
2753: b1 01     -         lda ($01),Y 
2755: 29 07     -         and #$07
2757: c9 02     -         cmp #$02
2759: d0 18     -         bne L_BRS_2773_2759_OK
275b: a9 02     -         lda #$02
275d: 8d 08 26  -         sta $2608 
2760: ad 04 26  -         lda $2604 
2763: f0 06     -         beq L_BRS_276B_2763_OK
2765: ea        -         nop 
2766: ea        -         nop 
2767: ea        -         nop 
2768: ea        -         nop 
2769: ea        -         nop 
276a: ea        -         nop 
276b: ea        - L_BRS_276B_2763_OK:nop 
276c: ea        -         nop 
276d: 20 f8 27  -         jsr L_JSR_27F8_276D_OK
2770: 4c 87 27  -         jmp L_JMP_2787_2770_OK
2773: ad 08 26  - L_BRS_2773_2759_OK:lda $2608 
2776: c9 07     -         cmp #$07
2778: f0 0d     -         beq L_BRS_2787_2778_OK
277a: ea        -         nop 
277b: ea        -         nop 
277c: ea        -         nop 
277d: ea        -         nop 
277e: ea        -         nop 
277f: ea        -         nop 
2780: ea        -         nop 
2781: ea        -         nop 
2782: ea        -         nop 
2783: ea        -         nop 
2784: 20 c0 27  -         jsr L_JSR_27C0_2784_OK
2787: a5 09     - L_JMP_2787_2770_OK,L_BRS_2787_2778_OK:lda $09 
2789: ea        -         nop 
278a: 91 01     -         sta ($01),Y 
278c: ad 01 26  -         lda $2601 
278f: 85 02     -         sta $02 
2791: ae 03 26  -         ldx $2603 
2794: bd 09 26  -         lda $2609,X 
2797: 91 01     -         sta ($01),Y 
2799: 60        -         rts 
279a: 00 00 07 00 07 00 4f 96                          -         .byte $00,$00,$07,$00,$07,$00,$4f,$96
27a2: 36 96 1d 96 04 96 eb 95                          -         .byte $36,$96,$1d,$96,$04,$96,$eb,$95
27aa: d2 95 b9 95 a0 95 87 95                          -         .byte $d2,$95,$b9,$95,$a0,$95,$87,$95
27b2: 6e 95 55 95 3c 95 4f 56                          -         .byte $6e,$95,$55,$95,$3c,$95,$4f,$56
27ba: 57 58 59 00 00 00                                -         .byte $57,$58,$59,$00,$00,$00
27c0: ee 04 26  - L_JSR_27C0_2784_OK:inc $2604 
27c3: ad 04 26  -         lda $2604 
27c6: 0a        -         asl  
27c7: aa        -         tax 
27c8: ad 00 26  -         lda $2600 
27cb: 9d 9e 27  -         sta $279E,X 
27ce: ad 01 26  -         lda $2601 
27d1: 18        -         clc 
27d2: 69 84     -         adc #$84
27d4: 9d 9f 27  -         sta $279F,X 
27d7: 8a        -         txa 
27d8: c9 02     -         cmp #$02
27da: d0 01     -         bne L_BRS_27DD_27DA_OK
27dc: 60        -         rts 
27dd: bd 9c 27  - L_BRS_27DD_27DA_OK:lda $279C,X 
27e0: dd 9e 27  -         cmp $279E,X 
27e3: d0 04     -         bne L_BRS_27E9_27E3_OK
27e5: ce 04 26  -         dec $2604 
27e8: 60        -         rts 
27e9: ad 04 26  - L_BRS_27E9_27E3_OK:lda $2604 
27ec: c9 0c     -         cmp #$0C
27ee: f0 01     -         beq L_BRS_27F1_27EE_OK
27f0: 60        -         rts 
27f1: 4c 80 28  - L_BRS_27F1_27EE_OK:jmp L_JMP_2880_27F1_OK
27f4: 00 00 00 00                                      -         .byte $00,$00,$00,$00
27f8: ad 04 26  - L_JSR_27F8_276D_OK:lda $2604 
27fb: 0a        -         asl  
27fc: aa        -         tax 
27fd: bd 9e 27  -         lda $279E,X 
2800: cd 00 26  -         cmp $2600 
2803: d0 01     -         bne L_BRS_2806_2803_OK
2805: 60        -         rts 
2806: ad 04 26  - L_BRS_2806_2803_OK:lda $2604 
2809: c9 03     -         cmp #$03
280b: f0 0b     -         beq L_BRS_2818_280B_OK
280d: c9 07     -         cmp #$07
280f: f0 07     -         beq L_BRS_2818_280F_OK
2811: c9 0b     -         cmp #$0B
2813: f0 03     -         beq L_BRS_2818_2813_OK
2815: 4c 80 28  -         jmp L_JMP_2880_2815_OK
2818: ad 02 26  - L_BRS_2818_280B_OK,L_BRS_2818_280F_OK,L_BRS_2818_2813_OK:lda $2602 
281b: 4c 21 28  -         jmp L_JMP_2821_281B_OK
281e: 4c 44 2a  - L_BRS_281E_2826_OK:jmp L_JMP_2A44_281E_OK
2821: a2 05     - L_JMP_2821_281B_OK:ldx #$05
2823: dd b7 27  - L_BRS_2823_2829_OK:cmp $27B7,X 
2826: f0 f6     -         beq L_BRS_281E_2826_OK
2828: ca        -         dex 
2829: d0 f8     -         bne L_BRS_2823_2829_OK
282b: 4c 80 28  -         jmp L_JMP_2880_282B_OK
282e: a9 00     - L_JMP_282E_28C5_OK,L_JMP_282E_2E3C_OK:lda #$00
2830: 8d 04 26  -         sta $2604 
2833: ad 00 26  - L_JMP_2833_2873_OK,L_JMP_2833_287B_OK:lda $2600 
2836: 85 01     -         sta $01 
2838: ad 01 26  -         lda $2601 
283b: 18        -         clc 
283c: 69 84     -         adc #$84
283e: 85 02     -         sta $02 
2840: 60        -         rts 
2841: a9 07     - L_BRS_2841_2885_OK,L_JSR_2841_2BA0_OK,L_JSR_2841_2D3A_OK:lda #$07
2843: 8d 08 26  -         sta $2608 
2846: ad 04 26  -         lda $2604 
2849: c9 00     -         cmp #$00
284b: d0 03     -         bne L_BRS_2850_284B_OK
284d: 4c 76 28  -         jmp L_JMP_2876_284D_OK
2850: 0a        - L_BRS_2850_284B_OK:asl  
2851: aa        -         tax 
2852: bd 9e 27  - L_BRS_2852_2867_OK:lda $279E,X 
2855: 85 01     -         sta $01 
2857: bd 9f 27  -         lda $279F,X 
285a: 85 02     -         sta $02 
285c: a0 00     -         ldy #$00
285e: a9 07     -         lda #$07
2860: 91 01     -         sta ($01),Y 
2862: 20 9a 28  -         jsr L_JSR_289A_2862_OK
2865: ca        -         dex 
2866: ca        -         dex 
2867: d0 e9     -         bne L_BRS_2852_2867_OK
2869: a9 00     -         lda #$00
286b: 8d 04 26  -         sta $2604 
286e: a9 c3     -         lda #$C3
2870: 8d 0d 90  -         sta $900D 
2873: 4c 33 28  -         jmp L_JMP_2833_2873_OK
2876: a9 02     - L_JMP_2876_284D_OK:lda #$02
2878: 8d 08 26  -         sta $2608 
287b: 4c 33 28  -         jmp L_JMP_2833_287B_OK
287e: 02 02     -         .byte $02,$02
2880: ad 04 26  - L_JMP_2880_27F1_OK,L_JMP_2880_2815_OK,L_JMP_2880_282B_OK:lda $2604 
2883: c9 01     -         cmp #$01
2885: d0 ba     -         bne L_BRS_2841_2885_OK
2887: ad a0 27  -         lda $27A0 
288a: 85 01     -         sta $01 
288c: ad a1 27  -         lda $27A1 
288f: 85 02     -         sta $02 
2891: a0 00     -         ldy #$00
2893: a9 07     -         lda #$07
2895: 91 01     -         sta ($01),Y 
2897: 4c c2 28  -         jmp L_JMP_28C2_2897_OK
289a: 8a        - L_JSR_289A_2862_OK,L_JSR_289A_28C2_OK:txa 
289b: 48        -         pha 
289c: 98        -         tya 
289d: 48        -         pha 
289e: a0 0a     -         ldy #$0A
28a0: a2 00     -         ldx #$00
28a2: bd 00 23  - L_BRS_28A2_28BB_OK:lda $2300,X 
28a5: c5 01     -         cmp $01 
28a7: d0 0c     -         bne L_BRS_28B5_28A7_OK
28a9: 20 c6 29  -         jsr L_JSR_29C6_28A9_OK
28ac: ea        -         nop 
28ad: ea        -         nop 
28ae: d0 05     -         bne L_BRS_28B5_28AE_OK
28b0: a9 07     -         lda #$07
28b2: 9d 03 23  - L_JMP_28B2_1B50_OK:sta $2303,X 
28b5: e8        - L_BRS_28B5_28A7_OK,L_BRS_28B5_28AE_OK:inx 
28b6: e8        -         inx 
28b7: e8        -         inx 
28b8: e8        -         inx 
28b9: e8        -         inx 
28ba: 88        -         dey 
28bb: d0 e5     -         bne L_BRS_28A2_28BB_OK
28bd: 68        -         pla 
28be: a8        -         tay 
28bf: 68        -         pla 
28c0: aa        -         tax 
28c1: 60        -         rts 
28c2: 20 9a 28  - L_JMP_28C2_2897_OK:jsr L_JSR_289A_28C2_OK
28c5: 4c 2e 28  -         jmp L_JMP_282E_28C5_OK
28c8: c6 0f     - L_JSR_28C8_2250_OK:dec $0F 
28ca: f0 01     -         beq L_BRS_28CD_28CA_OK
28cc: 60        -         rts 
28cd: a5 0e     - L_BRS_28CD_28CA_OK:lda $0E 
28cf: 85 0f     -         sta $0F 
28d1: 4c 26 25  -         jmp L_JMP_2526_28D1_OK
28d4: a5 0d     - L_JMP_28D4_252B_OK:lda $0D 
28d6: 85 08     -         sta $08 
28d8: 4c e0 25  -         jmp L_JMP_25E0_28D8_OK
28db: 85 05     - L_JSR_28DB_249B_OK:sta $05 
28dd: ad 04 90  -         lda $9004 
28e0: 60        -         rts 
28e1: c6 14     - L_JSR_28E1_2256_OK:dec $14 
28e3: f0 01     -         beq L_BRS_28E6_28E3_OK
28e5: 60        -         rts 
28e6: a5 13     - L_BRS_28E6_28E3_OK:lda $13 
28e8: 85 14     -         sta $14 
28ea: c6 10     -         dec $10 
28ec: f0 01     -         beq L_BRS_28EF_28EC_OK
28ee: 60        -         rts 
28ef: a9 28     - L_BRS_28EF_28EC_OK:lda #$28
28f1: 85 10     -         sta $10 
28f3: ce 0e 90  -         dec $900E 
28f6: ad 0e 90  -         lda $900E 
28f9: f0 01     -         beq L_BRS_28FC_28F9_OK
28fb: 60        -         rts 
28fc: a0 02     - L_BRS_28FC_28F9_OK:ldy #$02
28fe: e6 15     - L_BRS_28FE_2905_OK:inc $15 
2900: d0 02     -         bne L_BRS_2904_2900_OK
2902: e6 16     -         inc $16 
2904: 88        - L_BRS_2904_2900_OK:dey 
2905: d0 f7     -         bne L_BRS_28FE_2905_OK
2907: a0 00     -         ldy #$00
2909: b1 15     -         lda ($15),Y 
290b: c9 ff     -         cmp #$FF
290d: f0 11     -         beq L_BRS_2920_290D_OK
290f: 8d 0c 90  -         sta $900C 
2912: c8        -         iny 
2913: b1 15     -         lda ($15),Y 
2915: 85 13     -         sta $13 
2917: 85 14     -         sta $14 
2919: a9 0f     -         lda #$0F
291b: 8d 0e 90  -         sta $900E 
291e: 60        -         rts 
291f: ea        -         nop 
2920: 4c d0 29  - L_JSR_2920_2225_OK,L_BRS_2920_290D_OK:jmp L_JMP_29D0_2920_OK
2923: 15 a9 29 85 16 60 02 02                          -         .byte $15,$a9,$29,$85,$16,$60,$02,$02
292b: 87 02 9f 02 af 02 87 01                          -         .byte $87,$02,$9f,$02,$af,$02,$87,$01
2933: 9f 02 af 02 87 01 9f 02                          -         .byte $9f,$02,$af,$02,$87,$01,$9f,$02
293b: af 02 87 02 a4 02 b7 02                          -         .byte $af,$02,$87,$02,$a4,$02,$b7,$02
2943: 87 01 a4 02 b7 02 87 01                          -         .byte $87,$01,$a4,$02,$b7,$02,$87,$01
294b: a4 02 b7 02 87 02 9f 02                          -         .byte $a4,$02,$b7,$02,$87,$02,$9f,$02
2953: af 02 87 01 9f 02 af 02                          -         .byte $af,$02,$87,$01,$9f,$02,$af,$02
295b: 87 01 9f 02 af 02 a4 02                          -         .byte $87,$01,$9f,$02,$af,$02,$a4,$02
2963: a4 02 a4 01 a4 02 a4 04                          -         .byte $a4,$02,$a4,$01,$a4,$02,$a4,$04
296b: a4 01 a4 01 af 01 af 01                          -         .byte $a4,$01,$a4,$01,$af,$01,$af,$01
2973: b3 01 b3 01 b7 02 bb 02                          -         .byte $b3,$01,$b3,$01,$b7,$02,$bb,$02
297b: b7 02 af 02 a4 02 af 02                          -         .byte $b7,$02,$af,$02,$a4,$02,$af,$02
2983: a4 02 93 02 af 02 af 01                          -         .byte $a4,$02,$93,$02,$af,$02,$af,$01
298b: b7 01 af 02 a4 02 9f 01                          -         .byte $b7,$01,$af,$02,$a4,$02,$9f,$01
2993: 9f 01 93 02 87 04 b7 01                          -         .byte $9f,$01,$93,$02,$87,$04,$b7,$01
299b: b7 01 bb 02 b7 02 af 02                          -         .byte $b7,$01,$bb,$02,$b7,$02,$af,$02
29a3: a4 02 af 02 a4 02 93 02                          -         .byte $a4,$02,$af,$02,$a4,$02,$93,$02
29ab: af 02 af 01 b7 01 af 02                          -         .byte $af,$02,$af,$01,$b7,$01,$af,$02
29b3: a4 02 9f 01 9f 01 93 02                          -         .byte $a4,$02,$9f,$01,$9f,$01,$93,$02
29bb: 87 04 00 01 ff ff ff ff                          -         .byte $87,$04,$00,$01,$ff,$ff,$ff,$ff
29c3: ff ff ff  -         .byte $ff,$ff,$ff
29c6: bd 01 23  - L_JSR_29C6_28A9_OK:lda $2301,X 
29c9: 18        -         clc 
29ca: 69 84     -         adc #$84
29cc: c5 02     -         cmp $02 
29ce: 60        -         rts 
29cf: ff        -         .byte $FF
29d0: a9 29     - L_JMP_29D0_2920_OK:lda #$29
29d2: 85 15     -         sta $15 
29d4: 85 16     -         sta $16 
29d6: a9 01     -         lda #$01
29d8: 85 10     -         sta $10 
29da: a9 01     -         lda #$01
29dc: 85 13     -         sta $13 
29de: 85 14     -         sta $14 
29e0: a0 00     -         ldy #$00
29e2: a9 01     -         lda #$01
29e4: 8d 0e 90  -         sta $900E 
29e7: 60        -         rts 
29e8: a2 01     - L_BRS_29E8_2A12_OK,L_JMP_29E8_2B28_OK:ldx #$01
29ea: ad 0d 90  - L_BRS_29EA_2A0B_OK:lda $900D 
29ed: c9 c3     -         cmp #$C3
29ef: d0 08     -         bne L_BRS_29F9_29EF_OK
29f1: a9 e1     -         lda #$E1
29f3: 8d 0d 90  -         sta $900D 
29f6: 4c 0a 2a  -         jmp L_JMP_2A0A_29F6_OK
29f9: c9 e1     - L_BRS_29F9_29EF_OK:cmp #$E1
29fb: d0 08     -         bne L_BRS_2A05_29FB_OK
29fd: a9 f0     -         lda #$F0
29ff: 8d 0d 90  -         sta $900D 
2a02: 4c 0a 2a  -         jmp L_JMP_2A0A_2A02_OK
2a05: a9 00     - L_BRS_2A05_29FB_OK:lda #$00
2a07: 8d 0d 90  -         sta $900D 
2a0a: ca        - L_JMP_2A0A_29F6_OK,L_JMP_2A0A_2A02_OK:dex 
2a0b: d0 dd     -         bne L_BRS_29EA_2A0B_OK
2a0d: 60        -         rts 
2a0e: a5 08     - L_JSR_2A0E_2259_OK:lda $08 
2a10: c9 01     -         cmp #$01
2a12: f0 d4     -         beq L_BRS_29E8_2A12_OK
2a14: 60        -         rts 
2a15: ad 0b 90  - L_BRS_2A17_2A38_BAD,L_BRS_2A15_2A41_OK:lda $900B 
2a18: c9 00     -         cmp #$00
2a1a: d0 01     -         bne L_BRS_2A1D_2A1A_OK
2a1c: 60        -         rts 
2a1d: ee 0b 90  - L_BRS_2A1D_2A1A_OK:inc $900B 
2a20: ee 0a 90  -         inc $900A 
2a23: ee 0d 90  -         inc $900D 
2a26: 60        -         rts 
2a27: 0f        -         .byte $0F
2a28: 8d 0e 90  -         sta $900E 
2a2b: 60        -         rts 
2a2c: 9d 09 90  -         sta $9009,X 
2a2f: 4c 37 2a  -         jmp L_JMP_2A37_2A2F_OK
2a32: a9 00     -         lda #$00
2a34: 9d 09 90  -         sta $9009,X 
2a37: ca        - L_JMP_2A37_2A2F_OK:dex 
2a38: d0 db     -         bne L_BRS_2A17_2A38_BAD
2a3a: 60        -         rts 
2a3b: a5 08     - L_JSR_2A3B_225C_OK:lda $08 
2a3d: ea        -         nop 
2a3e: ea        -         nop 
2a3f: c9 01     -         cmp #$01
2a41: f0 d2     -         beq L_BRS_2A15_2A41_OK
2a43: 60        -         rts 
2a44: a9 f2     - L_JMP_2A44_281E_OK:lda #$F2
2a46: 8d 0a 90  -         sta $900A 
2a49: 8d 0b 90  -         sta $900B 
2a4c: a0 03     -         ldy #$03
2a4e: a6 19     -         ldx $19 
2a50: 20 60 2a  -         jsr L_JSR_2A60_2A50_OK
2a53: e6 17     -         inc $17 
2a55: a5 17     -         lda $17 
2a57: c9 24     -         cmp #$24
2a59: f0 23     -         beq L_BRS_2A7E_2A59_OK
2a5b: ea        -         nop 
2a5c: ea        -         nop 
2a5d: 4c 83 2a  -         jmp L_JMP_2A83_2A5D_OK
2a60: 98        - L_JSR_2A60_2A50_OK,L_BRS_2A60_2A79_OK,L_JSR_2A60_2B49_OK:tya 
2a61: 48        -         pha 
2a62: b1 1a     - L_BRS_2A62_2A74_OK:lda ($1A),Y 
2a64: 18        -         clc 
2a65: 69 01     -         adc #$01
2a67: 91 1a     -         sta ($1A),Y 
2a69: c9 3a     -         cmp #$3A
2a6b: d0 09     -         bne L_BRS_2A76_2A6B_OK
2a6d: a9 30     -         lda #$30
2a6f: 91 1a     -         sta ($1A),Y 
2a71: 88        -         dey 
2a72: c0 ff     -         cpy #$FF
2a74: d0 ec     -         bne L_BRS_2A62_2A74_OK
2a76: 68        - L_BRS_2A76_2A6B_OK:pla 
2a77: a8        -         tay 
2a78: ca        -         dex 
2a79: d0 e5     -         bne L_BRS_2A60_2A79_OK
2a7b: a0 00     -         ldy #$00
2a7d: 60        -         rts 
2a7e: 4c ee 2e  - L_BRS_2A7E_2A59_OK:jmp L_JMP_2EEE_2A7E_OK
2a81: 68        -         pla 
2a82: 60        -         rts 
2a83: 20 da 2f  - L_JMP_2A83_2A5D_OK:jsr L_JSR_2FDA_2A83_OK
2a86: 29 07     -         and #$07
2a88: c9 07     -         cmp #$07
2a8a: f0 27     -         beq L_BRS_2AB3_2A8A_OK
2a8c: ad 7c 94  -         lda $947C 
2a8f: 29 07     -         and #$07
2a91: c9 07     -         cmp #$07
2a93: f0 1e     -         beq L_BRS_2AB3_2A93_OK
2a95: ad bc 96  -         lda $96BC 
2a98: 29 07     -         and #$07
2a9a: c9 07     -         cmp #$07
2a9c: f0 15     -         beq L_BRS_2AB3_2A9C_OK
2a9e: ad d4 96  -         lda $96D4 
2aa1: 29 07     -         and #$07
2aa3: c9 07     -         cmp #$07
2aa5: f0 0c     -         beq L_BRS_2AB3_2AA5_OK
2aa7: a5 18     -         lda $18 
2aa9: d0 08     -         bne L_BRS_2AB3_2AA9_OK
2aab: a9 20     -         lda #$20
2aad: 85 18     -         sta $18 
2aaf: a9 01     -         lda #$01
2ab1: 85 20     -         sta $20 
2ab3: 4c 38 2e  - L_BRS_2AB3_2A8A_OK,L_BRS_2AB3_2A93_OK,L_BRS_2AB3_2A9C_OK,L_BRS_2AB3_2AA5_OK,L_BRS_2AB3_2AA9_OK:jmp L_JMP_2E38_2AB3_OK
2ab6: a5 18     - L_JMP_2AB6_2B19_OK:lda $18 
2ab8: d0 01     -         bne L_BRS_2ABB_2AB8_OK
2aba: 60        -         rts 
2abb: c9 ff     - L_BRS_2ABB_2AB8_OK:cmp #$FF
2abd: d0 05     -         bne L_BRS_2AC4_2ABD_OK
2abf: a9 03     -         lda #$03
2ac1: 85 20     -         sta $20 
2ac3: 60        -         rts 
2ac4: c9 20     - L_BRS_2AC4_2ABD_OK:cmp #$20
2ac6: d0 0e     -         bne L_BRS_2AD6_2AC6_OK
2ac8: a5 21     -         lda $21 
2aca: 85 18     -         sta $18 
2acc: a9 90     -         lda #$90
2ace: 8d 0c 90  -         sta $900C 
2ad1: a9 01     -         lda #$01
2ad3: 85 13     -         sta $13 
2ad5: 60        -         rts 
2ad6: 20 2b 2b  - L_BRS_2AD6_2AC6_OK:jsr L_JSR_2B2B_2AD6_OK
2ad9: ad 0c 90  -         lda $900C 
2adc: c9 c0     -         cmp #$C0
2ade: f0 01     -         beq L_BRS_2AE1_2ADE_OK
2ae0: 60        -         rts 
2ae1: a9 90     - L_BRS_2AE1_2ADE_OK:lda #$90
2ae3: 8d 0c 90  -         sta $900C 
2ae6: c6 18     -         dec $18 
2ae8: a9 01     -         lda #$01
2aea: 85 20     -         sta $20 
2aec: a9 01     -         lda #$01
2aee: 85 20     -         sta $20 
2af0: a5 18     -         lda $18 
2af2: c9 08     -         cmp #$08
2af4: d0 05     -         bne L_BRS_2AFB_2AF4_OK
2af6: a9 06     - L_BRS_2AF6_2AFD_OK,L_BRS_2AF6_2B01_OK,L_BRS_2AF6_2B05_OK:lda #$06
2af8: 85 20     -         sta $20 
2afa: 60        -         rts 
2afb: c9 06     - L_BRS_2AFB_2AF4_OK:cmp #$06
2afd: f0 f7     -         beq L_BRS_2AF6_2AFD_OK
2aff: c9 04     -         cmp #$04
2b01: f0 f3     -         beq L_BRS_2AF6_2B01_OK
2b03: c9 02     -         cmp #$02
2b05: f0 ef     -         beq L_BRS_2AF6_2B05_OK
2b07: c9 01     -         cmp #$01
2b09: f0 01     -         beq L_BRS_2B0C_2B09_OK
2b0b: 60        -         rts 
2b0c: a9 ff     - L_BRS_2B0C_2B09_OK:lda #$FF
2b0e: 85 18     -         sta $18 
2b10: 60        -         rts 
2b11: ad 10 00  - L_JSR_2B11_225F_OK:lda.abs $0010 
2b14: c9 10     -         cmp #$10
2b16: f0 01     -         beq L_BRS_2B19_2B16_OK
2b18: 60        -         rts 
2b19: 4c b6 2a  - L_BRS_2B19_2B16_OK:jmp L_JMP_2AB6_2B19_OK
2b1c: a5 08     -         lda $08 
2b1e: c9 01     -         cmp #$01
2b20: f0 01     -         beq L_BRS_2B23_2B20_OK
2b22: 60        -         rts 
2b23: a5 18     - L_BRS_2B23_2B20_OK:lda $18 
2b25: f0 01     -         beq L_BRS_2B28_2B25_OK
2b27: 60        -         rts 
2b28: 4c e8 29  - L_BRS_2B28_2B25_OK:jmp L_JMP_29E8_2B28_OK
2b2b: ee 0c 90  - L_JSR_2B2B_2AD6_OK:inc $900C 
2b2e: a9 0f     -         lda #$0F
2b30: 8d 0e 90  -         sta $900E 
2b33: a9 20     -         lda #$20
2b35: 85 10     -         sta $10 
2b37: 60        -         rts 
2b38: a5 18     - L_BRS_2B38_2B95_OK:lda $18 
2b3a: f0 16     -         beq L_BRS_2B52_2B3A_OK
2b3c: 20 d2 2f  -         jsr L_JSR_2FD2_2B3C_OK
2b3f: ea        -         nop 
2b40: f0 03     -         beq L_BRS_2B45_2B40_OK
2b42: 0a        -         asl  
2b43: 85 22     -         sta $22 
2b45: a6 22     - L_BRS_2B45_2B40_OK:ldx $22 
2b47: a0 02     -         ldy #$02
2b49: 20 60 2a  -         jsr L_JSR_2A60_2B49_OK
2b4c: a9 c3     -         lda #$C3
2b4e: 4c b7 2b  -         jmp L_JMP_2BB7_2B4E_OK
2b51: 60        -         rts 
2b52: a9 00     - L_BRS_2B52_2B3A_OK,L_JMP_2B52_2B97_OK:lda #$00
2b54: 20 db 2e  -         jsr L_JSR_2EDB_2B54_OK
2b57: a9 80     -         lda #$80
2b59: 8d 0d 90  -         sta $900D 
2b5c: a9 0f     -         lda #$0F
2b5e: 8d 0e 90  -         sta $900E 
2b61: 8d 0e 90  -         sta $900E 
2b64: a0 50     - L_BRS_2B64_2B6D_OK:ldy #$50
2b66: 88        - L_BRS_2B66_2B67_OK,L_BRS_2B66_2B8C_OK:dey 
2b67: d0 fd     -         bne L_BRS_2B66_2B67_OK
2b69: ea        -         nop 
2b6a: ea        -         nop 
2b6b: c6 1f     -         dec $1F 
2b6d: d0 f5     -         bne L_BRS_2B64_2B6D_OK
2b6f: ea        -         nop 
2b70: ad 00 26  -         lda $2600 
2b73: 85 01     -         sta $01 
2b75: ad 01 26  -         lda $2601 
2b78: 85 02     -         sta $02 
2b7a: ad 0e 90  -         lda $900E 
2b7d: 29 03     -         and #$03
2b7f: aa        -         tax 
2b80: bd 09 26  - L_BRS_2B80_2B87_OK:lda $2609,X 
2b83: 91 01     -         sta ($01),Y 
2b85: c6 1f     -         dec $1F 
2b87: d0 f7     -         bne L_BRS_2B80_2B87_OK
2b89: ce 0e 90  -         dec $900E 
2b8c: d0 d8     -         bne L_BRS_2B66_2B8C_OK
2b8e: 4c 3a 2d  -         jmp L_JMP_2D3A_2B8E_OK
2b91: a5 18     - L_JMP_2B91_2636_OK,L_JMP_2B91_2743_OK,L_JMP_2B91_2C19_OK:lda $18 
2b93: c9 ff     -         cmp #$FF
2b95: d0 a1     -         bne L_BRS_2B38_2B95_OK
2b97: 4c 52 2b  -         jmp L_JMP_2B52_2B97_OK
2b9a: ff ff ff ff ff ff                                -         .byte $FF,$FF,$FF,$FF,$FF,$FF
2ba0: 20 41 28  - L_JMP_2BA0_2BF5_OK:jsr L_JSR_2841_2BA0_OK
2ba3: 20 00 21  -         jsr L_JSR_2100_2BA3_OK
2ba6: 4c a0 25  -         jmp L_JMP_25A0_2BA6_OK
2ba9: 02        -         .byte $02
2baa: ae 03 26  -         ldx $2603 
2bad: bd 09 26  -         lda $2609,X 
2bb0: a0 00     -         ldy #$00
2bb2: 91 01     -         sta ($01),Y 
2bb4: 4c 20 26  -         jmp L_JMP_2620_2BB4_OK
2bb7: a6 22     - L_JMP_2BB7_2B4E_OK:ldx $22 
2bb9: ad 00 26  -         lda $2600 
2bbc: 85 01     -         sta $01 
2bbe: ad 01 26  -         lda $2601 
2bc1: 85 02     -         sta $02 
2bc3: a0 00     -         ldy #$00
2bc5: a9 a0     -         lda #$A0
2bc7: 18        -         clc 
2bc8: 65 22     -         adc $22 
2bca: 91 01     -         sta ($01),Y 
2bcc: a5 02     -         lda $02 
2bce: 18        -         clc 
2bcf: 69 84     -         adc #$84
2bd1: 85 02     -         sta $02 
2bd3: a9 80     -         lda #$80
2bd5: 85 1f     -         sta $1F 
2bd7: a2 08     - L_BRS_2BD7_2BEE_OK:ldx #$08
2bd9: a0 00     -         ldy #$00
2bdb: 88        - L_BRS_2BDB_2BDC_OK,L_BRS_2BDB_2BDF_OK:dey 
2bdc: d0 fd     -         bne L_BRS_2BDB_2BDC_OK
2bde: ca        -         dex 
2bdf: d0 fa     -         bne L_BRS_2BDB_2BDF_OK
2be1: a5 1f     -         lda $1F 
2be3: 29 07     -         and #$07
2be5: 91 01     -         sta ($01),Y 
2be7: a5 1f     -         lda $1F 
2be9: 8d 0c 90  -         sta $900C 
2bec: e6 1f     -         inc $1F 
2bee: d0 e7     -         bne L_BRS_2BD7_2BEE_OK
2bf0: a9 90     -         lda #$90
2bf2: 8d 0c 90  -         sta $900C 
2bf5: 4c a0 2b  -         jmp L_JMP_2BA0_2BF5_OK
2bf8: a5 04     - L_JMP_2BF8_2508_OK:lda $04 
2bfa: a2 04     -         ldx #$04
2bfc: dd 08 26  - L_BRS_2BFC_2C02_OK:cmp $2608,X 
2bff: f0 06     -         beq L_BRS_2C07_2BFF_OK
2c01: ca        -         dex 
2c02: d0 f8     -         bne L_BRS_2BFC_2C02_OK
2c04: 4c 43 25  -         jmp L_JMP_2543_2C04_OK
2c07: 68        - L_BRS_2C07_2BFF_OK:pla 
2c08: aa        -         tax 
2c09: ad 02 26  -         lda $2602 
2c0c: 9d 04 23  -         sta $2304,X 
2c0f: ad 08 26  -         lda $2608 
2c12: 9d 03 23  -         sta $2303,X 
2c15: 68        -         pla 
2c16: 68        -         pla 
2c17: 68        -         pla 
2c18: 68        -         pla 
2c19: 4c 91 2b  -         jmp L_JMP_2B91_2C19_OK
2c1c: a2 00     - L_JSR_2C1C_2212_OK:ldx #$00
2c1e: bd 00 94  - L_BRS_2C1E_2C3A_OK:lda $9400,X 
2c21: 9d 00 35  -         sta $3500,X 
2c24: 9d 00 39  -         sta $3900,X 
2c27: bd 00 95  -         lda $9500,X 
2c2a: 9d 00 36  -         sta $3600,X 
2c2d: 9d 00 3a  -         sta $3A00,X 
2c30: bd 00 96  -         lda $9600,X 
2c33: 9d 00 37  -         sta $3700,X 
2c36: 9d 00 3b  -         sta $3B00,X 
2c39: e8        -         inx 
2c3a: d0 e2     -         bne L_BRS_2C1E_2C3A_OK
2c3c: a5 26     -         lda $26 
2c3e: 85 26     -         sta $26 
2c40: a9 01     -         lda #$01
2c42: 85 29     -         sta $29 
2c44: a9 03     -         lda #$03
2c46: 8d 00 3c  -         sta $3C00 
2c49: 8d 10 3c  -         sta $3C10 
2c4c: a9 00     -         lda #$00
2c4e: 8d 01 3c  -         sta $3C01 
2c51: 8d 11 3c  -         sta $3C11 
2c54: a5 29     - L_JSR_2C54_2D64_OK:lda $29 
2c56: c9 02     -         cmp #$02
2c58: d0 02     -         bne L_BRS_2C5C_2C58_OK
2c5a: a2 10     -         ldx #$10
2c5c: bd 00 3c  - L_BRS_2C5C_2C58_OK:lda $3C00,X 
2c5f: d0 1a     -         bne L_BRS_2C7B_2C5F_OK
2c61: e0 10     -         cpx #$10
2c63: d0 05     -         bne L_BRS_2C6A_2C63_OK
2c65: a2 10     -         ldx #$10
2c67: 4c 6c 2c  -         jmp L_JMP_2C6C_2C67_OK
2c6a: a2 00     - L_BRS_2C6A_2C63_OK:ldx #$00
2c6c: bd 00 3c  - L_JMP_2C6C_2C67_OK:lda $3C00,X 
2c6f: f0 01     -         beq L_BRS_2C72_2C6F_OK
2c71: 60        -         rts 
2c72: 4c fb 2e  - L_BRS_2C72_2C6F_OK,L_JMP_2C72_2E35_OK:jmp L_JMP_2EFB_2C72_OK
2c75: 68        -         pla 
2c76: ea        -         nop 
2c77: ea        -         nop 
2c78: ea        -         nop 
2c79: ea        -         nop 
2c7a: 60        -         rts 
2c7b: a9 10     - L_BRS_2C7B_2C5F_OK:lda #$10
2c7d: 85 24     -         sta $24 
2c7f: a0 00     -         ldy #$00
2c81: a5 29     -         lda $29 
2c83: c9 02     -         cmp #$02
2c85: d0 02     -         bne L_BRS_2C89_2C85_OK
2c87: a0 15     -         ldy #$15
2c89: 84 23     - L_BRS_2C89_2C85_OK:sty $23 
2c8b: a5 29     -         lda $29 
2c8d: c9 01     -         cmp #$01
2c8f: d0 07     -         bne L_BRS_2C98_2C8F_OK
2c91: a9 35     -         lda #$35
2c93: 85 2b     -         sta $2B 
2c95: 4c 9c 2c  -         jmp L_JMP_2C9C_2C95_OK
2c98: a9 39     - L_BRS_2C98_2C8F_OK:lda #$39
2c9a: 85 2b     -         sta $2B 
2c9c: a9 00     - L_JMP_2C9C_2C95_OK:lda #$00
2c9e: 85 2a     -         sta $2A 
2ca0: 85 27     -         sta $27 
2ca2: a9 94     -         lda #$94
2ca4: 85 28     -         sta $28 
2ca6: a2 03     -         ldx #$03
2ca8: a0 00     - L_BRS_2CA8_2CB6_OK:ldy #$00
2caa: b1 2a     - L_BRS_2CAA_2CAF_OK:lda ($2A),Y 
2cac: 91 27     -         sta ($27),Y 
2cae: c8        -         iny 
2caf: d0 f9     -         bne L_BRS_2CAA_2CAF_OK
2cb1: e6 28     -         inc $28 
2cb3: e6 2b     -         inc $2B 
2cb5: ca        -         dex 
2cb6: d0 f0     -         bne L_BRS_2CA8_2CB6_OK
2cb8: a0 05     -         ldy #$05
2cba: a9 35     -         lda #$35
2cbc: 85 1a     -         sta $1A 
2cbe: a5 29     -         lda $29 
2cc0: c9 02     -         cmp #$02
2cc2: d0 06     -         bne L_BRS_2CCA_2CC2_OK
2cc4: a0 04     -         ldy #$04
2cc6: a9 46     -         lda #$46
2cc8: 85 1a     -         sta $1A 
2cca: 84 09     - L_BRS_2CCA_2CC2_OK:sty $09 
2ccc: 60        -         rts 
2ccd: ea        -         nop 
2cce: ea        -         nop 
2ccf: ea        -         nop 
2cd0: a2 05     - L_JMP_2CD0_2D89_OK:ldx #$05
2cd2: a5 00     -         lda $00 
2cd4: 85 1f     -         sta $1F 
2cd6: a0 00     -         ldy #$00
2cd8: bd 00 23  - L_BRS_2CD8_2CF1_OK:lda $2300,X 
2cdb: 85 01     -         sta $01 
2cdd: bd 01 23  -         lda $2301,X 
2ce0: 18        -         clc 
2ce1: 69 84     -         adc #$84
2ce3: 85 02     -         sta $02 
2ce5: bd 03 23  -         lda $2303,X 
2ce8: 91 01     -         sta ($01),Y 
2cea: e8        -         inx 
2ceb: e8        -         inx 
2cec: e8        -         inx 
2ced: e8        -         inx 
2cee: e8        -         inx 
2cef: c6 1f     -         dec $1F 
2cf1: d0 e5     -         bne L_BRS_2CD8_2CF1_OK
2cf3: a5 29     -         lda $29 
2cf5: c9 01     -         cmp #$01
2cf7: d0 07     -         bne L_BRS_2D00_2CF7_OK
2cf9: a9 35     -         lda #$35
2cfb: 85 2b     -         sta $2B 
2cfd: 4c 04 2d  -         jmp L_JMP_2D04_2CFD_OK
2d00: a9 39     - L_BRS_2D00_2CF7_OK:lda #$39
2d02: 85 2b     -         sta $2B 
2d04: a9 00     - L_JMP_2D04_2CFD_OK:lda #$00
2d06: 85 2a     -         sta $2A 
2d08: 85 27     -         sta $27 
2d0a: a9 94     -         lda #$94
2d0c: 85 28     -         sta $28 
2d0e: a2 03     -         ldx #$03
2d10: a0 00     - L_BRS_2D10_2D1E_OK:ldy #$00
2d12: b1 27     - L_BRS_2D12_2D17_OK:lda ($27),Y 
2d14: 91 2a     -         sta ($2A),Y 
2d16: c8        -         iny 
2d17: d0 f9     -         bne L_BRS_2D12_2D17_OK
2d19: e6 2b     -         inc $2B 
2d1b: e6 28     -         inc $28 
2d1d: ca        -         dex 
2d1e: d0 f0     -         bne L_BRS_2D10_2D1E_OK
2d20: a5 29     -         lda $29 
2d22: c9 02     -         cmp #$02
2d24: d0 02     -         bne L_BRS_2D28_2D24_OK
2d26: a2 10     -         ldx #$10
2d28: bd 00 3c  - L_BRS_2D28_2D24_OK:lda $3C00,X 
2d2b: a8        -         tay 
2d2c: 88        -         dey 
2d2d: a9 20     -         lda #$20
2d2f: 91 23     -         sta ($23),Y 
2d31: de 00 3c  -         dec $3C00,X 
2d34: ea        -         nop 
2d35: ea        -         nop 
2d36: 60        -         rts 
2d37: ea        -         nop 
2d38: ea        -         nop 
2d39: ea        -         nop 
2d3a: 20 41 28  - L_JMP_2D3A_2B8E_OK:jsr L_JSR_2841_2D3A_OK
2d3d: 20 70 2d  -         jsr L_JSR_2D70_2D3D_OK
2d40: a5 26     -         lda $26 
2d42: c9 01     -         cmp #$01
2d44: d0 09     -         bne L_BRS_2D4F_2D44_OK
2d46: 20 00 21  - L_BRS_2D46_2D55_OK,L_JMP_2D46_2D5B_OK:jsr L_JSR_2100_2D46_OK
2d49: 4c 5e 2d  -         jmp L_JMP_2D5E_2D49_OK
2d4c: ea        -         nop 
2d4d: ea        -         nop 
2d4e: ea        -         nop 
2d4f: e6 29     - L_BRS_2D4F_2D44_OK,L_BRS_2D50_2DB4_BAD:inc $29 
2d51: a5 29     -         lda $29 
2d53: c9 03     -         cmp #$03
2d55: d0 ef     -         bne L_BRS_2D46_2D55_OK
2d57: a9 01     -         lda #$01
2d59: 85 29     - L_BRS_2D59_2DB9_OK:sta $29 
2d5b: 4c 46 2d  -         jmp L_JMP_2D46_2D5B_OK
2d5e: 20 a0 25  - L_JMP_2D5E_2D49_OK:jsr L_JSR_25A0_2D5E_OK
2d61: 20 a0 25  - L_BRS_2D62_2DBE_BAD:jsr L_JSR_25A0_2D61_OK
2d64: 20 54 2c  -         jsr L_JSR_2C54_2D64_OK
2d67: a9 02     -         lda #$02
2d69: 8d 0e 90  - L_BRS_2D6B_2DC3_BAD:sta $900E 
2d6c: 4c 8d 2d  -         jmp L_JMP_2D8D_2D6C_OK
2d6f: ea        -         nop 
2d70: a2 00     - L_JSR_2D70_2D3D_OK,L_JMP_2D70_2ED1_OK:ldx #$00
2d72: a5 29     -         lda $29 
2d74: c9 02     - L_BRS_2D74_2DC8_OK:cmp #$02
2d76: d0 02     -         bne L_BRS_2D7A_2D76_OK
2d78: a2 10     -         ldx #$10
2d7a: a5 17     - L_BRS_2D7A_2D76_OK:lda $17 
2d7c: 9d 03 3c  - L_BRS_2D7D_2DCD_BAD:sta $3C03,X 
2d7f: a5 19     - L_BRS_2D80_2DDC_BAD:lda $19 
2d81: 9d 02 3c  - L_BRS_2D83_2DD2_BAD:sta $3C02,X 
2d84: a5 18     -         lda $18 
2d86: 9d 04 3c  -         sta $3C04,X 
2d89: 4c d0 2c  -         jmp L_JMP_2CD0_2D89_OK
2d8c: ea        -         nop 
2d8d: a2 00     - L_JMP_2D8D_2D6C_OK:ldx #$00
2d8f: a5 29     -         lda $29 
2d91: c9 02     -         cmp #$02
2d93: d0 02     -         bne L_BRS_2D97_2D93_OK
2d95: a2 10     -         ldx #$10
2d97: bd 02 3c  - L_BRS_2D97_2D93_OK:lda $3C02,X 
2d9a: 85 19     -         sta $19 
2d9c: bd 03 3c  -         lda $3C03,X 
2d9f: 85 17     - L_BRS_2DA0_2DD7_BAD:sta $17 
2da1: bd 04 3c  -         lda $3C04,X 
2da4: 85 18     -         sta $18 
2da6: 20 dd 2d  -         jsr L_JSR_2DDD_2DA6_OK
2da9: ea        -         nop 
2daa: ea        -         nop 
2dab: ea        -         nop 
2dac: ea        -         nop 
2dad: ea        -         nop 
2dae: ea        -         nop 
2daf: 60        -         rts 
2db0: 96 10 00 07 50 9a 10 00                          -         .byte $96,$10,$00,$07,$50,$9a,$10,$00
2db8: 07 50 9e 10 00 07 50 a2                          -         .byte $07,$50,$9e,$10,$00,$07,$50,$a2
2dc0: 10 00 07 50 a6 10 00 07                          -         .byte $10,$00,$07,$50,$a6,$10,$00,$07
2dc8: 50 aa 10 00 07 50 ae 10                          -         .byte $50,$aa,$10,$00,$07,$50,$ae,$10
2dd0: 00 07 50 af 10 02 07 50                          -         .byte $00,$07,$50,$af,$10,$02,$07,$50
2dd8: c7 10 02 07 50                                   -         .byte $c7,$10,$02,$07,$50
2ddd: a2 2d     - L_JSR_2DDD_2215_OK,L_JSR_2DDD_2DA6_OK,L_JSR_2DDD_2E92_OK:ldx #$2D
2ddf: bd af 2d  - L_BRS_2DDF_2DE6_OK:lda $2DAF,X
2de2: 9d 04 23  -         sta $2304,X
2de5: ca        -         dex
2de6: d0 f7     -         bne L_BRS_2DDF_2DE6_OK
2de8: a2 05     -         ldx #$05
2dea: a0 00     -         ldy #$00
2dec: a9 09     -         lda #$09
2dee: 85 1f     -         sta $1F 
2df0: bd 00 23  - L_BRS_2DF0_2E09_OK:lda $2300,X 
2df3: 85 01     -         sta $01 
2df5: bd 01 23  -         lda $2301,X 
2df8: 18        -         clc 
2df9: 69 84     -         adc #$84
2dfb: 85 02     -         sta $02 
2dfd: b1 01     -         lda ($01),Y 
2dff: 9d 03 23  -         sta $2303,X 
2e02: e8        -         inx 
2e03: e8        -         inx 
2e04: e8        -         inx 
2e05: e8        -         inx 
2e06: e8        -         inx 
2e07: c6 1f     -         dec $1F 
2e09: d0 e5     -         bne L_BRS_2DF0_2E09_OK
2e0b: 4c d4 2e  -         jmp L_JMP_2ED4_2E0B_OK
2e0e: a5 19     - L_JSR_2E0E_220F_OK:lda $19 
2e10: 8d 12 3c  -         sta $3C12 
2e13: a9 00     -         lda #$00
2e15: 8d 13 3c  -         sta $3C13 
2e18: a9 00     -         lda #$00
2e1a: 8d 14 3c  -         sta $3C14 
2e1d: ea        -         nop 
2e1e: ea        -         nop 
2e1f: ea        -         nop 
2e20: 4c a0 25  -         jmp L_JMP_25A0_2E20_OK
2e23: e0 10     -         cpx #$10
2e25: d0 01     -         bne L_BRS_2E28_2E25_OK
2e27: 60        - L_BRS_2E27_2E2C_OK,L_BRS_2E27_2E33_OK:rts 
2e28: a5 26     - L_BRS_2E28_2E25_OK:lda $26 
2e2a: c9 01     -         cmp #$01
2e2c: d0 f9     -         bne L_BRS_2E27_2E2C_OK
2e2e: ad 00 2c  -         lda $2C00 
2e31: c9 00     -         cmp #$00
2e33: d0 f2     -         bne L_BRS_2E27_2E33_OK
2e35: 4c 72 2c  -         jmp L_JMP_2C72_2E35_OK
2e38: a9 01     - L_JMP_2E38_2AB3_OK:lda #$01
2e3a: 85 22     -         sta $22 
2e3c: 4c 2e 28  -         jmp L_JMP_282E_2E3C_OK
2e3f: 00        -         .byte $00
2e40: a2 10     - L_JMP_2E40_2EF1_OK:ldx #$10
2e42: a9 e0     - L_BRS_2E42_2E5E_OK:lda #$E0
2e44: 85 1f     -         sta $1F 
2e46: a0 00     - L_BRS_2E46_2E5B_OK:ldy #$00
2e48: 99 64 94  - L_BRS_2E48_2E52_OK:sta $9464,Y 
2e4b: 99 00 95  -         sta $9500,Y 
2e4e: 99 00 96  -         sta $9600,Y 
2e51: c8        -         iny 
2e52: d0 f4     -         bne L_BRS_2E48_2E52_OK
2e54: a5 1f     -         lda $1F 
2e56: 8d 0c 90  -         sta $900C 
2e59: e6 1f     -         inc $1F 
2e5b: d0 e9     -         bne L_BRS_2E46_2E5B_OK
2e5d: ca        -         dex 
2e5e: d0 e2     -         bne L_BRS_2E42_2E5E_OK
2e60: e6 19     -         inc $19 
2e62: a9 00     -         lda #$00
2e64: 85 18     -         sta $18 
2e66: a9 01     -         lda #$01
2e68: 85 22     -         sta $22 
2e6a: a9 00     -         lda #$00
2e6c: 85 17     -         sta $17 
2e6e: e6 00     -         inc $00 
2e70: a5 19     -         lda $19 
2e72: c9 0a     -         cmp #$0A
2e74: d0 04     -         bne L_BRS_2E7A_2E74_OK
2e76: a9 09     -         lda #$09
2e78: 85 19     -         sta $19 
2e7a: a5 19     - L_BRS_2E7A_2E74_OK:lda $19 
2e7c: 85 00     -         sta $00 
2e7e: a9 00     -         lda #$00
2e80: 8d 0c 90  -         sta $900C 
2e83: 8d 0b 90  -         sta $900B 
2e86: 8d 0a 90  -         sta $900A 
2e89: 20 ae 21  -         jsr L_JSR_21AE_2E89_OK
2e8c: 20 00 21  -         jsr L_JSR_2100_2E8C_OK
2e8f: 20 a0 25  -         jsr L_JSR_25A0_2E8F_OK
2e92: 20 dd 2d  -         jsr L_JSR_2DDD_2E92_OK
2e95: 4c f4 2e  -         jmp L_JMP_2EF4_2E95_OK
2e98: 4c 50 22  -         jmp L_JMP_2250_2E98_OK
2e9b: a5 08     - L_JSR_2E9B_2262_OK:lda $08 
2e9d: c9 01     -         cmp #$01
2e9f: f0 01     -         beq L_BRS_2EA2_2E9F_OK
2ea1: 60        -         rts 
2ea2: c6 2a     - L_BRS_2EA2_2E9F_OK:dec $2A 
2ea4: f0 01     -         beq L_BRS_2EA7_2EA4_OK
2ea6: 60        -         rts 
2ea7: a9 05     - L_BRS_2EA7_2EA4_OK:lda #$05
2ea9: 85 2a     -         sta $2A 
2eab: a2 00     -         ldx #$00
2ead: a5 29     -         lda $29 
2eaf: c9 02     -         cmp #$02
2eb1: d0 02     -         bne L_BRS_2EB5_2EB1_OK
2eb3: a2 10     -         ldx #$10
2eb5: bc 00 3c  - L_BRS_2EB5_2EB1_OK:ldy $3C00,X 
2eb8: 88        -         dey 
2eb9: b1 23     -         lda ($23),Y 
2ebb: c9 20     -         cmp #$20
2ebd: f0 05     -         beq L_BRS_2EC4_2EBD_OK
2ebf: a9 20     -         lda #$20
2ec1: 91 23     -         sta ($23),Y 
2ec3: 60        -         rts 
2ec4: a9 4b     - L_BRS_2EC4_2EBD_OK:lda #$4B
2ec6: 91 23     -         sta ($23),Y 
2ec8: 60        -         rts 
2ec9: 40        -         rti 
2eca: a9 05     -         lda #$05
2ecc: 85 2a     -         sta $2A 
2ece: ea        -         nop 
2ecf: ea        -         nop 
2ed0: ea        -         nop 
2ed1: 4c 70 2d  -         jmp L_JMP_2D70_2ED1_OK
2ed4: a5 19     - L_JMP_2ED4_2E0B_OK:lda $19 
2ed6: 85 00     -         sta $00 
2ed8: 4c 40 2f  -         jmp L_JMP_2F40_2ED8_OK
2edb: a9 00     - L_JSR_2EDB_2B54_OK,L_JSR_2EDB_2EEE_OK,L_JSR_2EDB_2EFB_OK,L_JSR_2EDB_2F4F_OK,L_JSR_2EDB_2F99_OK:lda #$00
2edd: 8d 0a 90  -         sta $900A 
2ee0: 8d 0b 90  -         sta $900B 
2ee3: 8d 0c 90  -         sta $900C 
2ee6: 8d 0d 90  -         sta $900D 
2ee9: a9 03     -         lda #$03
2eeb: 85 20     -         sta $20 
2eed: 60        -         rts 
2eee: 20 db 2e  - L_JMP_2EEE_2A7E_OK:jsr L_JSR_2EDB_2EEE_OK
2ef1: 4c 40 2e  -         jmp L_JMP_2E40_2EF1_OK
2ef4: 68        - L_JMP_2EF4_2E95_OK:pla 
2ef5: 68        -         pla 
2ef6: 68        -         pla 
2ef7: 68        -         pla 
2ef8: 4c 50 22  -         jmp L_JMP_2250_2EF8_OK
2efb: 20 db 2e  - L_JMP_2EFB_2C72_OK:jsr L_JSR_2EDB_2EFB_OK
2efe: a9 0f     -         lda #$0F
2f00: 8d 0e 90  -         sta $900E 
2f03: 20 ae 21  -         jsr L_JSR_21AE_2F03_OK
2f06: a2 09     -         ldx #$09
2f08: bd 36 2f  - L_BRS_2F08_2F0F_OK:lda $2F36,X 
2f0b: 9d 01 11  -         sta $1101,X 
2f0e: ca        -         dex 
2f0f: d0 f7     -         bne L_BRS_2F08_2F0F_OK
2f11: a9 ff     -         lda #$FF
2f13: 85 1f     -         sta $1F 
2f15: a4 1f     - L_BRS_2F15_2F2E_OK:ldy $1F 
2f17: ca        - L_BRS_2F17_2F18_OK,L_BRS_2F17_2F26_OK:dex 
2f18: d0 fd     -         bne L_BRS_2F17_2F18_OK
2f1a: 8c 0a 90  -         sty $900A 
2f1d: 8c 0b 90  -         sty $900B 
2f20: 8c 0c 90  -         sty $900C 
2f23: 88        -         dey 
2f24: c0 80     -         cpy #$80
2f26: d0 ef     -         bne L_BRS_2F17_2F26_OK
2f28: c6 1f     -         dec $1F 
2f2a: a5 1f     -         lda $1F 
2f2c: c9 c0     -         cmp #$C0
2f2e: d0 e5     -         bne L_BRS_2F15_2F2E_OK
2f30: 4c 55 2f  -         jmp L_JMP_2F55_2F30_OK
2f33: 68        -         pla 
2f34: 60        -         rts 
2f35: 0d 05 07 01                                      -         .byte $0D,$05,$07,$01
2f39: 0d 05 20 0f                                      -         .byte $0D,$05,$20,$0F
2f3d: 16 05 12  -         .byte $16,$05,$12
2f40: a5 19     - L_JMP_2F40_2ED8_OK:lda $19 
2f42: 0a        -         asl  
2f43: 85 21     -         sta $21 
2f45: a9 20     -         lda #$20
2f47: 38        -         sec 
2f48: e5 21     -         sbc $21 
2f4a: 85 21     -         sta $21 
2f4c: ea        -         nop 
2f4d: ea        -         nop 
2f4e: ea        -         nop 
2f4f: 20 db 2e  -         jsr L_JSR_2EDB_2F4F_OK
2f52: 4c 90 23  -         jmp L_JMP_2390_2F52_OK
2f55: a0 00     - L_JMP_2F55_2F30_OK:ldy #$00
2f57: a2 05     -         ldx #$05
2f59: b9 35 10  - L_BRS_2F59_2F67_OK:lda $1035,Y 
2f5c: d9 7b 20  -         cmp $207B,Y 
2f5f: f0 04     -         beq L_BRS_2F65_2F5F_OK
2f61: 10 06     -         bpl L_BRS_2F69_2F61_OK
2f63: 30 12     -         bmi L_BRS_2F77_2F63_OK
2f65: c8        - L_BRS_2F65_2F5F_OK:iny 
2f66: ca        -         dex 
2f67: d0 f0     -         bne L_BRS_2F59_2F67_OK
2f69: a2 05     - L_BRS_2F69_2F61_OK:ldx #$05
2f6b: bd 34 10  - L_BRS_2F6B_2F75_OK:lda $1034,X 
2f6e: 9d 7a 20  -         sta $207A,X 
2f71: 9d 55 10  -         sta $1055,X 
2f74: ca        -         dex 
2f75: d0 f4     -         bne L_BRS_2F6B_2F75_OK
2f77: a0 00     - L_BRS_2F77_2F63_OK:ldy #$00
2f79: a2 05     -         ldx #$05
2f7b: b9 46 10  - L_BRS_2F7B_2F89_OK:lda $1046,Y 
2f7e: d9 7b 20  -         cmp $207B,Y 
2f81: f0 04     -         beq L_BRS_2F87_2F81_OK
2f83: 10 06     -         bpl L_BRS_2F8B_2F83_OK
2f85: 30 12     -         bmi L_BRS_2F99_2F85_OK
2f87: c8        - L_BRS_2F87_2F81_OK:iny 
2f88: ca        -         dex 
2f89: d0 f0     -         bne L_BRS_2F7B_2F89_OK
2f8b: a2 05     - L_BRS_2F8B_2F83_OK:ldx #$05
2f8d: bd 45 10  - L_BRS_2F8D_2F97_OK:lda $1045,X 
2f90: 9d 7a 20  -         sta $207A,X 
2f93: 9d 55 10  -         sta $1055,X 
2f96: ca        -         dex 
2f97: d0 f4     -         bne L_BRS_2F8D_2F97_OK
2f99: 20 db 2e  - L_BRS_2F99_2F85_OK:jsr L_JSR_2EDB_2F99_OK
2f9c: ea        -         nop 
2f9d: ea        -         nop 
2f9e: ea        -         nop 
2f9f: 68        -         pla 
2fa0: 68        -         pla 
2fa1: 68        -         pla 
2fa2: 68        -         pla 
2fa3: 4c 60 30  -         jmp L_JMP_3060_2FA3_OK
2fa6: 8a        - L_JSR_2FA6_2FD2_OK,L_JSR_2FA6_2FDA_OK:txa 
2fa7: 48        -         pha 
2fa8: 98        -         tya 
2fa9: 48        -         pha 
2faa: a5 00     -         lda $00 
2fac: 85 1f     -         sta $1F 
2fae: a2 05     -         ldx #$05
2fb0: a0 00     -         ldy #$00
2fb2: bd 00 23  - L_BRS_2FB2_2FCB_OK:lda $2300,X 
2fb5: 85 01     -         sta $01 
2fb7: bd 01 23  -         lda $2301,X 
2fba: 18        -         clc 
2fbb: 69 84     -         adc #$84
2fbd: 85 02     -         sta $02 
2fbf: bd 03 23  -         lda $2303,X 
2fc2: 91 01     -         sta ($01),Y 
2fc4: e8        -         inx 
2fc5: e8        -         inx 
2fc6: e8        -         inx 
2fc7: e8        -         inx 
2fc8: e8        -         inx 
2fc9: c6 1f     -         dec $1F 
2fcb: d0 e5     -         bne L_BRS_2FB2_2FCB_OK
2fcd: 68        -         pla 
2fce: a8        -         tay 
2fcf: 68        -         pla 
2fd0: aa        -         tax 
2fd1: 60        -         rts 
2fd2: 20 a6 2f  - L_JSR_2FD2_2B3C_OK:jsr L_JSR_2FA6_2FD2_OK
2fd5: a5 22     -         lda $22 
2fd7: c9 10     -         cmp #$10
2fd9: 60        -         rts 
2fda: 20 a6 2f  - L_JSR_2FDA_2A83_OK:jsr L_JSR_2FA6_2FDA_OK
2fdd: ad 64 94  -         lda $9464 
2fe0: 60        -         rts 
2fe1: 00 00 00 00 00 00 00 00                          -         .byte $00,$00,$00,$00,$00,$00,$00,$00
2fe9: 00 00 00 00 00 00 00 00                          -         .byte $00,$00,$00,$00,$00,$00,$00,$00
2ff1: 00 00 00 00 00 00 00 00                          -         .byte $00,$00,$00,$00,$00,$00,$00,$00
2ff9: 00 00 00 00 00 00 00                             -         .byte $00,$00,$00,$00,$00,$00,$00
3000: 20 ae 21  - L_JSR_3000_3060_OK,L_JSR_3000_30CA_OK:jsr L_JSR_21AE_3000_OK
3003: a2 12     -         ldx #$12
3005: bd ff 30  - L_BRS_3005_300C_OK:lda $30FF,X 
3008: 9d 7f 10  -         sta $107F,X 
300b: ca        -         dex 
300c: d0 f7     -         bne L_BRS_3005_300C_OK
300e: a2 05     -         ldx #$05
3010: bd 11 31  - L_BRS_3010_301D_OK:lda $3111,X 
3013: 9d b9 10  -         sta $10B9,X 
3016: bd 16 31  -         lda $3116,X 
3019: 9d d2 10  -         sta $10D2,X 
301c: ca        -         dex 
301d: d0 f1     -         bne L_BRS_3010_301D_OK
301f: a2 19     -         ldx #$19
3021: bd 1b 31  - L_BRS_3021_3028_OK:lda $311B,X 
3024: 9d f9 10  -         sta $10F9,X 
3027: ca        -         dex 
3028: d0 f7     -         bne L_BRS_3021_3028_OK
302a: ea        -         nop 
302b: a2 07     -         ldx #$07
302d: bd 34 31  - L_BRS_302D_303A_OK:lda $3134,X 
3030: 9d 35 11  - L_JSR_3030_206A_OK:sta $1135,X 
3033: bd 3b 31  -         lda $313B,X 
3036: 9d 4e 11  -         sta $114E,X 
3039: ca        -         dex 
303a: d0 f1     -         bne L_BRS_302D_303A_OK
303c: a2 14     -         ldx #$14
303e: bd 42 31  - L_BRS_303E_3051_OK:lda $3142,X 
3041: 9d 78 11  -         sta $1178,X 
3044: bd 56 31  -         lda $3156,X 
3047: 9d aa 11  -         sta $11AA,X 
304a: bd 6a 31  -         lda $316A,X 
304d: 9d dc 11  -         sta $11DC,X 
3050: ca        -         dex 
3051: d0 eb     -         bne L_BRS_303E_3051_OK
3053: a2 14     -         ldx #$14
3055: bd 7e 31  - L_BRS_3055_305C_OK:lda $317E,X 
3058: 9d 0e 12  -         sta $120E,X 
305b: ca        -         dex 
305c: d0 f7     -         bne L_BRS_3055_305C_OK
305e: 60        -         rts 
305f: ea        -         nop 
3060: 20 00 30  - L_JMP_3060_2022_OK,L_JMP_3060_2FA3_OK:jsr L_JSR_3000_3060_OK
3063: a2 02     - L_BRS_3063_3089_OK,L_BRS_3063_30B9_OK,L_JMP_3063_30D3_OK:ldx #$02
3065: 8a        - L_BRS_3065_3077_OK:txa 
3066: a0 00     -         ldy #$00
3068: 99 64 94  - L_BRS_3068_3072_OK:sta $9464,Y 
306b: 99 00 95  -         sta $9500,Y 
306e: 99 00 96  -         sta $9600,Y 
3071: 88        -         dey 
3072: d0 f4     -         bne L_BRS_3068_3072_OK
3074: e8        -         inx 
3075: e0 08     -         cpx #$08
3077: d0 ec     -         bne L_BRS_3065_3077_OK
3079: 20 60 25  -         jsr L_JSR_2560_3079_OK
307c: a5 0a     -         lda $0A 
307e: 29 80     -         and #$80
3080: f0 03     -         beq L_BRS_3085_3080_OK
3082: 4c 00 32  -         jmp L_JMP_3200_3082_OK
3085: a5 c5     - L_BRS_3085_3080_OK:lda $C5 
3087: c9 40     -         cmp #$40
3089: f0 d8     -         beq L_BRS_3063_3089_OK
308b: c9 27     -         cmp #$27
308d: d0 12     -         bne L_BRS_30A1_308D_OK
308f: ee 56 31  -         inc $3156 
3092: ad 56 31  -         lda $3156 
3095: c9 3a     -         cmp #$3A
3097: d0 31     -         bne L_BRS_30CA_3097_OK
3099: a9 31     -         lda #$31
309b: 8d 56 31  -         sta $3156 
309e: 4c ca 30  -         jmp L_JMP_30CA_309E_OK
30a1: c9 2f     - L_BRS_30A1_308D_OK:cmp #$2F
30a3: d0 12     -         bne L_BRS_30B7_30A3_OK
30a5: ee 6a 31  -         inc $316A 
30a8: ad 6a 31  -         lda $316A 
30ab: c9 3a     -         cmp #$3A
30ad: d0 1b     -         bne L_BRS_30CA_30AD_OK
30af: a9 31     -         lda #$31
30b1: 8d 6a 31  -         sta $316A 
30b4: 4c ca 30  -         jmp L_JMP_30CA_30B4_OK
30b7: c9 37     - L_BRS_30B7_30A3_OK:cmp #$37
30b9: d0 a8     -         bne L_BRS_3063_30B9_OK
30bb: ee 7e 31  -         inc $317E 
30be: ad 7e 31  -         lda $317E 
30c1: c9 33     -         cmp #$33
30c3: d0 05     -         bne L_BRS_30CA_30C3_OK
30c5: a9 31     -         lda #$31
30c7: 8d 7e 31  -         sta $317E 
30ca: 20 00 30  - L_BRS_30CA_3097_OK,L_JMP_30CA_309E_OK,L_BRS_30CA_30AD_OK,L_JMP_30CA_30B4_OK,L_BRS_30CA_30C3_OK:jsr L_JSR_3000_30CA_OK
30cd: a5 c5     - L_BRS_30CD_30D1_OK:lda $C5 
30cf: c9 40     -         cmp #$40
30d1: d0 fa     -         bne L_BRS_30CD_30D1_OK
30d3: 4c 63 30  -         jmp L_JMP_3063_30D3_OK
30d6: ea        -         nop 
30d7: ea        -         nop 
30d8: ea        -         nop 
30d9: ea        -         nop 
30da: ea        -         nop 
30db: ea        -         nop 
30dc: ea        -         nop 
30dd: ea        -         nop 
30de: ea        -         nop 
30df: ea        -         nop 
30e0: ea        -         nop 
30e1: ea        -         nop 
30e2: ea        -         nop 
30e3: ea        -         nop 
30e4: ea        -         nop 
30e5: ea        -         nop 
30e6: ea        -         nop 
30e7: ea        -         nop 
30e8: ea        -         nop 
30e9: ea        -         nop 
30ea: ea        -         nop 
30eb: ea        -         nop 
30ec: ea        -         nop 
30ed: ea        -         nop 
30ee: ea        -         nop 
30ef: ea        -         nop 
30f0: ea        -         nop 
30f1: ea        -         nop 
30f2: ea        -         nop 
30f3: ea        -         nop 
30f4: ea        -         nop 
30f5: ea        -         nop 
30f6: ea        -         nop 
30f7: ea        -         nop 
30f8: ea        -         nop 
30f9: ea        -         nop 
30fa: ea        -         nop 
30fb: ea        -         nop 
30fc: ea        -         nop 
30fd: ea        -         nop 
30fe: ea        -         nop 
30ff: ea        -         nop 
3100: 0c 0c 01 0d 01 13 0f 06                          -         .byte $0c,$0c,$01,$0d,$01,$13,$0f,$06
3108: 14 20 10 12 05 13 05 0e                          -         .byte $14,$20,$10,$12,$05,$13,$05,$0e
3110: 14 13 41 42 43 44 45 46                          -         .byte $14,$13,$41,$42,$43,$44,$45,$46
3118: 47 48 49 4a 01 04 16 01                          -         .byte $47,$48,$49,$4a,$01,$04,$16,$01
3120: 0e 03 05 04 20 07 01 0d                          -         .byte $0e,$03,$05,$04,$20,$07,$01,$0d
3128: 05 20 13 0f 06 14 17 01                          -         .byte $05,$20,$13,$0f,$06,$14,$17,$01
3130: 12 05 20 02 19 81 82 83                          -         .byte $12,$05,$20,$02,$19,$81,$82,$83
3138: 84 85 86 87 88 89 20 8a                          -         .byte $84,$85,$86,$87,$88,$89,$20,$8a
3140: 8b 8c 8d 06 31 3a 20 0e                          -         .byte $8b,$8c,$8d,$06,$31,$3a,$20,$0e
3148: 0f 2e 20 10 15 12 13 15                          -         .byte $0f,$2e,$20,$10,$15,$12,$13,$15
3150: 05 12 13 3a 20 20 33 06                          -         .byte $05,$12,$13,$3a,$20,$20,$33,$06
3158: 33 3a 20 13 10 05 05 04                          -         .byte $33,$3a,$20,$13,$10,$05,$05,$04
3160: 20 20 20 20 20 20 20 3a                          -         .byte $20,$20,$20,$20,$20,$20,$20,$3a
3168: 20 20 31 06 35 3a 20 0e                          -         .byte $20,$20,$31,$06,$35,$3a,$20,$0e
3170: 0f 2e 20 10 0c 01 19 05                          -         .byte $0f,$2e,$20,$10,$0c,$01,$19,$05
3178: 12 13 20 3a 20 20 31 10                          -         .byte $12,$13,$20,$3a,$20,$20,$31,$10
3180: 12 05 13 13 20 06 09 12                          -         .byte $12,$05,$13,$13,$20,$06,$09,$12
3188: 05 20 14 0f 20 02 05 07                          -         .byte $05,$20,$14,$0f,$20,$02,$05,$07
3190: 09 0e 2e  -         .byte $09,$0e,$2e
3193: ea        -         nop
3194: ea        -         nop
3195: ea        -         nop 
3196: ea        -         nop 
3197: ea        -         nop 
3198: ea        -         nop 
3199: ea        -         nop 
319a: ea        -         nop 
319b: ea        -         nop 
319c: ea        -         nop 
319d: ea        -         nop 
319e: ea        -         nop 
319f: ea        -         nop 
31a0: ea        -         nop 
31a1: ea        -         nop 
31a2: ea        -         nop 
31a3: ea        -         nop 
31a4: ea        -         nop 
31a5: ea        -         nop 
31a6: ea        -         nop 
31a7: ea        -         nop 
31a8: ea        -         nop 
31a9: ea        -         nop 
31aa: ea        -         nop 
31ab: ea        -         nop 
31ac: ea        -         nop 
31ad: ea        -         nop 
31ae: ea        -         nop 
31af: ea        -         nop 
31b0: ea        -         nop 
31b1: ea        -         nop 
31b2: ea        - L_JMP_31B2_1B6C_OK,L_JMP_31B2_1BEE_OK:nop 
31b3: ea        -         nop 
31b4: ea        -         nop 
31b5: ea        -         nop 
31b6: ea        -         nop 
31b7: ea        -         nop 
31b8: ea        -         nop 
31b9: ea        -         nop 
31ba: ea        -         nop 
31bb: ea        -         nop 
31bc: ea        -         nop 
31bd: ea        -         nop 
31be: ea        -         nop 
31bf: ea        -         nop 
31c0: ea        -         nop 
31c1: ea        -         nop 
31c2: ea        -         nop 
31c3: ea        -         nop 
31c4: ea        -         nop 
31c5: ea        -         nop 
31c6: ea        -         nop 
31c7: ea        -         nop 
31c8: ea        -         nop 
31c9: ea        -         nop 
31ca: ea        -         nop 
31cb: ea        -         nop 
31cc: ea        -         nop 
31cd: ea        -         nop 
31ce: ea        -         nop 
31cf: ea        -         nop 
31d0: ea        -         nop 
31d1: ea        -         nop 
31d2: ea        -         nop 
31d3: ea        -         nop 
31d4: ea        -         nop 
31d5: ea        -         nop 
31d6: ea        -         nop 
31d7: ea        -         nop 
31d8: ea        -         nop 
31d9: ea        -         nop 
31da: ea        -         nop 
31db: ea        -         nop 
31dc: ea        -         nop 
31dd: ea        -         nop 
31de: ea        -         nop 
31df: ea        -         nop 
31e0: ea        -         nop 
31e1: ea        -         nop 
31e2: ea        -         nop 
31e3: ea        -         nop 
31e4: ea        -         nop 
31e5: ea        -         nop 
31e6: ea        -         nop 
31e7: ea        -         nop 
31e8: ea        -         nop 
31e9: ea        -         nop 
31ea: ea        -         nop 
31eb: ea        -         nop 
31ec: ea        -         nop 
31ed: ea        -         nop 
31ee: ea        -         nop 
31ef: ea        -         nop 
31f0: ea        -         nop 
31f1: ea        -         nop 
31f2: ea        -         nop 
31f3: ea        -         nop 
31f4: ea        -         nop 
31f5: ea        -         nop 
31f6: ea        -         nop 
31f7: ea        -         nop 
31f8: ea        -         nop 
31f9: ea        -         nop 
31fa: ea        -         nop 
31fb: ea        -         nop 
31fc: ea        -         nop 
31fd: ea        -         nop 
31fe: ea        -         nop 
31ff: ea        -         nop 
3200: a0 30     - L_JMP_3200_3082_OK:ldy #$30
3202: ad 7e 31  -         lda $317E 
3205: 85 26     -         sta $26 
3207: c6 26     - L_BRS_3207_320A_OK:dec $26 
3209: 88        -         dey 
320a: d0 fb     -         bne L_BRS_3207_320A_OK
320c: a0 30     -         ldy #$30
320e: ad 56 31  -         lda $3156 
3211: 85 19     -         sta $19 
3213: c6 19     - L_BRS_3213_3216_OK:dec $19 
3215: 88        -         dey 
3216: d0 fb     -         bne L_BRS_3213_3216_OK
3218: a9 aa     -         lda #$AA
321a: 85 0d     -         sta $0D 
321c: ad 6a 31  -         lda $316A 
321f: 85 1f     -         sta $1F 
3221: a0 30     -         ldy #$30
3223: c6 1f     - L_BRS_3223_3226_OK:dec $1F 
3225: 88        -         dey 
3226: d0 fb     -         bne L_BRS_3223_3226_OK
3228: a5 0d     - L_BRS_3228_3231_OK:lda $0D 
322a: 38        -         sec 
322b: e9 0a     -         sbc #$0A
322d: 85 0d     -         sta $0D 
322f: c6 1f     -         dec $1F 
3231: d0 f5     -         bne L_BRS_3228_3231_OK
3233: 20 ed 20  -         jsr L_JSR_20ED_3233_OK
3236: 4c 00 22  -         jmp L_JMP_2200_3236_OK
3239: 02 02 ff ff ff ff ff ff                          -         .byte $02,$02,$ff,$ff,$ff,$ff,$ff,$ff
3241: ff ff ff ff ff ff ff ff                          -         .byte $ff,$ff,$ff,$ff,$ff,$ff,$ff,$ff
3249: ff ff ff ff ff ff ff ff                          -         .byte $ff,$ff,$ff,$ff,$ff,$ff,$ff,$ff
3251: ff ff ff ff ff ff ff ff                          -         .byte $ff,$ff,$ff,$ff,$ff,$ff,$ff,$ff
3259: ff ff ff ff ff ff ff ff                          -         .byte $ff,$ff,$ff,$ff,$ff,$ff,$ff,$ff
3261: ff ff ff ff ff ff ff ff                          -         .byte $ff,$ff,$ff,$ff,$ff,$ff,$ff,$ff
3269: ff ff ff ff ff ff ff ff                          -         .byte $ff,$ff,$ff,$ff,$ff,$ff,$ff,$ff
3271: ff ff ff ff ff ff ff ff                          -         .byte $ff,$ff,$ff,$ff,$ff,$ff,$ff,$ff
3279: ff ff ff ff ff ff ff ff                          -         .byte $ff,$ff,$ff,$ff,$ff,$ff,$ff,$ff
3281: ff ff ff ff ff ff ff ff                          -         .byte $ff,$ff,$ff,$ff,$ff,$ff,$ff,$ff
3289: ff ff ff ff ff ff ff ff                          -         .byte $ff,$ff,$ff,$ff,$ff,$ff,$ff,$ff
3291: ff ff ff ff ff ff ff ff                          -         .byte $ff,$ff,$ff,$ff,$ff,$ff,$ff,$ff
3299: ff ff ff ff ff ff ff ff                          -         .byte $ff,$ff,$ff,$ff,$ff,$ff,$ff,$ff
32a1: ff ff ff ff ff ff ff ff                          -         .byte $ff,$ff,$ff,$ff,$ff,$ff,$ff,$ff
32a9: ff ff ff ff ff ff ff ff                          -         .byte $ff,$ff,$ff,$ff,$ff,$ff,$ff,$ff
32b1: ff ff ff ff ff ff ff ff                          -         .byte $ff,$ff,$ff,$ff,$ff,$ff,$ff,$ff
32b9: ff ff ff ff ff ff ff ff                          -         .byte $ff,$ff,$ff,$ff,$ff,$ff,$ff,$ff
32c1: ff ff ff ff ff ff ff ff                          -         .byte $ff,$ff,$ff,$ff,$ff,$ff,$ff,$ff
32c9: ff ff ff ff ff ff ff ff                          -         .byte $ff,$ff,$ff,$ff,$ff,$ff,$ff,$ff
32d1: ff ff ff ff ff ff ff ff                          -         .byte $ff,$ff,$ff,$ff,$ff,$ff,$ff,$ff
32d9: ff ff ff ff ff ff ff ff                          -         .byte $ff,$ff,$ff,$ff,$ff,$ff,$ff,$ff
32e1: ff ff ff ff ff ff ff ff                          -         .byte $ff,$ff,$ff,$ff,$ff,$ff,$ff,$ff
32e9: ff ff ff ff ff ff ff ff                          -         .byte $ff,$ff,$ff,$ff,$ff,$ff,$ff,$ff
32f1: ff ff ff ff ff ff ff ff                          -         .byte $ff,$ff,$ff,$ff,$ff,$ff,$ff,$ff
32f9: ff ff ff ff ff ff ff cb                          -         .byte $ff,$ff,$ff,$ff,$ff,$ff,$ff,$cb
3301: f0 00 7f 00 7f 24 3f 30                          -         .byte $f0,$00,$7f,$00,$7f,$24,$3f,$30
3309: 7f 00 ff 20 ff 34 7f 14                          -         .byte $7f,$00,$ff,$20,$ff,$34,$7f,$14
3311: 9f 00 ff 00 ff 14 5f 34                          -         .byte $9f,$00,$ff,$00,$ff,$14,$5f,$34
3319: 3f 00 ff 00 ff 10 6f 14                          -         .byte $3f,$00,$ff,$00,$ff,$10,$6f,$14
3321: bf 00 ff 00 ff 30 7f 04                          -         .byte $bf,$00,$ff,$00,$ff,$30,$7f,$04
3329: 3f 00 ff 00 ff 10 3f 14                          -         .byte $3f,$00,$ff,$00,$ff,$10,$3f,$14
3331: 7f 00 ff 00 ff 34 7f 30                          -         .byte $7f,$00,$ff,$00,$ff,$34,$7f,$30
3339: ff 00 ff 00 ff 30 7f 30                          -         .byte $ff,$00,$ff,$00,$ff,$30,$7f,$30
3341: ff 00 ff 00 ff 30 7d 14                          -         .byte $ff,$00,$ff,$00,$ff,$30,$7d,$14
3349: bf 00 ff 00 ff 10 7f 34                          -         .byte $bf,$00,$ff,$00,$ff,$10,$7f,$34
3351: 3f 00 ff 00 ff 10 7f 04                          -         .byte $3f,$00,$ff,$00,$ff,$10,$7f,$04
3359: 5f 00 ff 00 ff 30 3f 20                          -         .byte $5f,$00,$ff,$00,$ff,$30,$3f,$20
3361: eb 00 ff 00 ff 10 3f 30                          -         .byte $eb,$00,$ff,$00,$ff,$10,$3f,$30
3369: bf 00 ff 00 ff 90 3f 04                          -         .byte $bf,$00,$ff,$00,$ff,$90,$3f,$04
3371: 3f 00 ff 00 ff 20 3f 34                          -         .byte $3f,$00,$ff,$00,$ff,$20,$3f,$34
3379: bf 20 ff 20 ff 34 3f 30                          -         .byte $bf,$20,$ff,$20,$ff,$34,$3f,$30
3381: 7f 00 ff 20 ff 24 ff 70                          -         .byte $7f,$00,$ff,$20,$ff,$24,$ff,$70
3389: bf 00 ff 10 ff 34 bf 30                          -         .byte $bf,$00,$ff,$10,$ff,$34,$bf,$30
3391: 7f 20 ff 20 ff 32 7f a4                          -         .byte $7f,$20,$ff,$20,$ff,$32,$7f,$a4
3399: 3f 00 ff 00 ff 30 1f 30                          -         .byte $3f,$00,$ff,$00,$ff,$30,$1f,$30
33a1: bf 00 ff 00 ff 30 ff 34                          -         .byte $bf,$00,$ff,$00,$ff,$30,$ff,$34
33a9: 3f 00 ff 04 ff 10 3f 34                          -         .byte $3f,$00,$ff,$04,$ff,$10,$3f,$34
33b1: fb 00 7f 00 ff 30 3f 34                          -         .byte $fb,$00,$7f,$00,$ff,$30,$3f,$34
33b9: ff 10 bf 00 ff 30 ff 30                          -         .byte $ff,$10,$bf,$00,$ff,$30,$ff,$30
33c1: 3f 00 ff 10 ff 34 bf 20                          -         .byte $3f,$00,$ff,$10,$ff,$34,$bf,$20
33c9: 7f 00 ff 00 ff 34 ff 34                          -         .byte $7f,$00,$ff,$00,$ff,$34,$ff,$34
33d1: 7f 00 ff 00 ff 30 bf 10                          -         .byte $7f,$00,$ff,$00,$ff,$30,$bf,$10
33d9: 3f 00 ff 10 ff 30 3f 20                          -         .byte $3f,$00,$ff,$10,$ff,$30,$3f,$20
33e1: 7f 00 bf 00 ff 34 7f 30                          -         .byte $7f,$00,$bf,$00,$ff,$34,$7f,$30
33e9: 3f 00 ff 00 ff 30 3f 30                          -         .byte $3f,$00,$ff,$00,$ff,$30,$3f,$30
33f1: 3f 20 ff 10 ff 30 1f 44                          -         .byte $3f,$20,$ff,$10,$ff,$30,$1f,$44
33f9: 3f 20 ff 20 ff 30 6f fc                          -         .byte $3f,$20,$ff,$20,$ff,$30,$6f,$fc
3401: 08 00 ff 00 ff 02 ff 01                          -         .byte $08,$00,$ff,$00,$ff,$02,$ff,$01
3409: ff 00 ff 00 ff 00 f7 01                          -         .byte $ff,$00,$ff,$00,$ff,$00,$f7,$01
3411: ff 00 ff 00 ff 83 ff 13                          -         .byte $ff,$00,$ff,$00,$ff,$83,$ff,$13
3419: 3f 00 ff 00 ff 02 7f 00                          -         .byte $3f,$00,$ff,$00,$ff,$02,$7f,$00
3421: ff 00 ff 00 ff 01 f7 00                          -         .byte $ff,$00,$ff,$00,$ff,$01,$f7,$00
3429: ff 00 ff 00 ff 42 f7 00                          -         .byte $ff,$00,$ff,$00,$ff,$42,$f7,$00
3431: ff 00 ff 00 ff 11 ff 02                          -         .byte $ff,$00,$ff,$00,$ff,$11,$ff,$02
3439: ff 00 ff 00 ff 02 ff 00                          -         .byte $ff,$00,$ff,$00,$ff,$02,$ff,$00
3441: bf 00 f7 00 ff 21 f7 02                          -         .byte $bf,$00,$f7,$00,$ff,$21,$f7,$02
3449: f7 00 ff 00 ff 02 ff 00                          -         .byte $f7,$00,$ff,$00,$ff,$02,$ff,$00
3451: ff 00 ff 00 ff 01 f7 01                          -         .byte $ff,$00,$ff,$00,$ff,$01,$f7,$01
3459: ff 00 ff 00 ff 02 ef 13                          -         .byte $ff,$00,$ff,$00,$ff,$02,$ef,$13
3461: b7 00 ff 00 ff 02 f7 01                          -         .byte $b7,$00,$ff,$00,$ff,$02,$f7,$01
3469: ff 00 ff 02 ff 00 f7 41                          -         .byte $ff,$00,$ff,$02,$ff,$00,$f7,$41
3471: f7 02 ff 00 ff 22 ff 00                          -         .byte $f7,$02,$ff,$00,$ff,$22,$ff,$00
3479: ff 00 bf 00 ff 02 df 01                          -         .byte $ff,$00,$bf,$00,$ff,$02,$df,$01
3481: ff 00 f7 00 ff 02 f7 01                          -         .byte $ff,$00,$f7,$00,$ff,$02,$f7,$01
3489: ff 00 ff 00 ff 82 f7 02                          -         .byte $ff,$00,$ff,$00,$ff,$82,$f7,$02
3491: df 00 ff 02 ff 02 ff 00                          -         .byte $df,$00,$ff,$02,$ff,$02,$ff,$00
3499: ff 00 ff 00 ff 00 df 03                          -         .byte $ff,$00,$ff,$00,$ff,$00,$df,$03
34a1: ff 00 ff 01 ff 00 df 02                          -         .byte $ff,$00,$ff,$01,$ff,$00,$df,$02
34a9: ff 00 ff 00 ff 00 7f 01                          -         .byte $ff,$00,$ff,$00,$ff,$00,$7f,$01
34b1: ff 00 ff 01 ff 00 ff 01                          -         .byte $ff,$00,$ff,$01,$ff,$00,$ff,$01
34b9: ff 00 ff 00 ff 02 ff 01                          -         .byte $ff,$00,$ff,$00,$ff,$02,$ff,$01
34c1: ff 00 ff 00 ff 02 ff 00                          -         .byte $ff,$00,$ff,$00,$ff,$02,$ff,$00
34c9: ff 00 ff 00 ff 01 f7 02                          -         .byte $ff,$00,$ff,$00,$ff,$01,$f7,$02
34d1: ff 00 ff 02 ff 21 ff 01                          -         .byte $ff,$00,$ff,$02,$ff,$21,$ff,$01
34d9: bf 00 ff 00 ff 02 f7 00                          -         .byte $bf,$00,$ff,$00,$ff,$02,$f7,$00
34e1: f7 00 ff 00 f7 06 ef 02                          -         .byte $f7,$00,$ff,$00,$f7,$06,$ef,$02
34e9: ff 00 ff 00 ff 20 ff 00                          -         .byte $ff,$00,$ff,$00,$ff,$20,$ff,$00
34f1: ff 00 ff 00 ff 02 ff 01                          -         .byte $ff,$00,$ff,$00,$ff,$02,$ff,$01
34f9: ff 00 ff 00 ff 03 ff 55                          -         .byte $ff,$00,$ff,$00,$ff,$03,$ff,$55
3501: 05 05 c0 20 20 c0 00 00                          -         .byte $05,$05,$c0,$20,$20,$c0,$00,$00
3509: c0 20 23 c3 03 03 c3 20                          -         .byte $c0,$20,$23,$c3,$03,$03,$c3,$20
3511: 20 c0 f0 80 c4 54 54 c0                          -         .byte $20,$c0,$f0,$80,$c4,$54,$54,$c0
3519: 00 00 c0 20 20 c0 10 20                          -         .byte $00,$00,$c0,$20,$20,$c0,$10,$20
3521: c0 50 50 c3 83 83 c3 53                          -         .byte $c0,$50,$50,$c3,$83,$83,$c3,$53
3529: 50 c0 f0 80 c0 50 50 c0                          -         .byte $50,$c0,$f0,$80,$c0,$50,$50,$c0
3531: 00 03 c3 20 21 c1 01 01                          -         .byte $00,$03,$c3,$20,$21,$c1,$01,$01
3539: c1 20 20 c0 00 00 c0 20                          -         .byte $c1,$20,$20,$c0,$00,$00,$c0,$20
3541: 20 00 f3 83 50 51 51 01                          -         .byte $20,$00,$f3,$83,$50,$51,$51,$01
3549: 01 c1 20 20 c0 00 10 c0                          -         .byte $01,$c1,$20,$20,$c0,$00,$10,$c0
3551: 50 50 c0 91 80 c3 53 53                          -         .byte $50,$50,$c0,$91,$80,$c3,$53,$53
3559: c3 03 f0 c0 50 50 c0 00                          -         .byte $c3,$03,$f0,$c0,$50,$50,$c0,$00
3561: 00 c0 20 27 c7 07 07 c7                          -         .byte $00,$c0,$20,$27,$c7,$07,$07,$c7
3569: 27 27 c7 07 07 c7 27 27                          -         .byte $27,$27,$c7,$07,$07,$c7,$27,$27
3571: c7 07 f7 c7 57 57 c7 07                          -         .byte $c7,$07,$f7,$c7,$57,$57,$c7,$07
3579: 07 c7 27 27 c7 07 17 c7                          -         .byte $07,$c7,$27,$27,$c7,$07,$17,$c7
3581: 57 57 c7 97 87 c7 57 57                          -         .byte $57,$57,$c7,$97,$87,$c7,$57,$57
3589: 97 07 f7 57 57 57 07 07                          -         .byte $97,$07,$f7,$57,$57,$57,$07,$07
3591: c7 27 27 c7 07 07 c7 27                          -         .byte $c7,$27,$27,$c7,$07,$07,$c7,$27
3599: 27 c7 07 07 c7 27 27 c7                          -         .byte $27,$c7,$07,$07,$c7,$27,$27,$c7
35a1: c7 07 c7 57 57 c7 07 07                          -         .byte $c7,$07,$c7,$57,$57,$c7,$07,$07
35a9: c7 27 27 c7 07 07 c7 57                          -         .byte $c7,$27,$27,$c7,$07,$07,$c7,$57
35b1: 57 c7 47 d7 c7 57 57 c7                          -         .byte $57,$c7,$47,$d7,$c7,$57,$57,$c7
35b9: 97 07 c7 57 57 c7 07 07                          -         .byte $97,$07,$c7,$57,$57,$c7,$07,$07
35c1: c7 27 27 c7 07 07 c7 27                          -         .byte $c7,$27,$27,$c7,$07,$07,$c7,$27
35c9: 27 c7 07 07 c7 27 27 d7                          -         .byte $27,$c7,$07,$07,$c7,$27,$27,$d7
35d1: 87 07 57 57 57 07 07 c7                          -         .byte $87,$07,$57,$57,$57,$07,$07,$c7
35d9: 27 27 c7 07 07 c7 27 57                          -         .byte $27,$27,$c7,$07,$07,$c7,$27,$57
35e1: c7 67 47 c7 57 57 c7 37                          -         .byte $c7,$67,$47,$c7,$57,$57,$c7,$37
35e9: 97 c7 47 57 c7 07 07 c7                          -         .byte $97,$c7,$47,$57,$c7,$07,$07,$c7
35f1: 27 27 c7 07 07 c7 27 27                          -         .byte $27,$27,$c7,$07,$07,$c7,$27,$27
35f9: c7 07 07 c7 27 27 c7 27                          -         .byte $c7,$07,$07,$c7,$27,$27,$c7,$27
3601: c7 07 07 c7 27 27 c7 07                          -         .byte $c7,$07,$07,$c7,$27,$27,$c7,$07
3609: 07 c7 27 27 c7 87 87 c7                          -         .byte $07,$c7,$27,$27,$c7,$87,$87,$c7
3611: 57 57 c7 07 07 c7 27 27                          -         .byte $57,$57,$c7,$07,$07,$c7,$27,$27
3619: c7 07 07 c7 27 57 c7 37                          -         .byte $c7,$07,$07,$c7,$27,$57,$c7,$37
3621: 47 c7 57 57 57 17 17 57                          -         .byte $47,$c7,$57,$57,$57,$17,$17,$57
3629: 47 57 07 07 c7 27 27 c7                          -         .byte $47,$57,$07,$07,$c7,$27,$27,$c7
3631: 07 07 c7 27 27 c7 07 07                          -         .byte $07,$07,$c7,$27,$27,$c7,$07,$07
3639: c7 27 27 c7 87 87 c7 57                          -         .byte $c7,$27,$27,$c7,$87,$87,$c7,$57
3641: 57 c7 07 07 c7 27 27 c7                          -         .byte $57,$c7,$07,$07,$c7,$27,$27,$c7
3649: 07 07 c7 27 27 c7 17 37                          -         .byte $07,$07,$c7,$27,$27,$c7,$17,$37
3651: c7 57 57 c7 47 17 c7 47                          -         .byte $c7,$57,$57,$c7,$47,$17,$c7,$47
3659: 47 c7 07 07 c7 27 27 c7                          -         .byte $47,$c7,$07,$07,$c7,$27,$27,$c7
3661: 07 07 c7 27 27 c7 07 07                          -         .byte $07,$07,$c7,$27,$27,$c7,$07,$07
3669: c7 27 27 77 87 87 57 57                          -         .byte $c7,$27,$27,$77,$87,$87,$57,$57
3671: 57 07 07 c7 27 27 c7 07                          -         .byte $57,$07,$07,$c7,$27,$27,$c7,$07
3679: 07 c7 27 27 c7 07 17 c7                          -         .byte $07,$c7,$27,$27,$c7,$07,$17,$c7
3681: 57 57 c7 c7 47 c7 47 47                          -         .byte $57,$57,$c7,$c7,$47,$c7,$47,$47
3689: c7 07 07 c7 27 27 c7 07                          -         .byte $c7,$07,$07,$c7,$27,$27,$c7,$07
3691: 07 c7 27 27 c7 07 07 c7                          -         .byte $07,$c7,$27,$27,$c7,$07,$07,$c7
3699: 27 27 c7 57 87 c7 57 57                          -         .byte $27,$27,$c7,$57,$87,$c7,$57,$57
36a1: c7 07 07 c7 27 27 c7 07                          -         .byte $c7,$07,$07,$c7,$27,$27,$c7,$07
36a9: 07 c7 27 27 c7 07 17 c7                          -         .byte $07,$c7,$27,$27,$c7,$07,$17,$c7
36b1: 57 57 97 c7 47 57 47 57                          -         .byte $57,$57,$97,$c7,$47,$57,$47,$57
36b9: f7 07 c7 27 27 c7 07 07                          -         .byte $f7,$07,$c7,$27,$27,$c7,$07,$07
36c1: c7 27 27 c7 07 07 c7 27                          -         .byte $c7,$27,$27,$c7,$07,$07,$c7,$27
36c9: 27 c7 87 77 c7 57 57 c7                          -         .byte $27,$c7,$87,$77,$c7,$57,$57,$c7
36d1: 07 07 c7 27 27 c7 07 07                          -         .byte $07,$07,$c7,$27,$27,$c7,$07,$07
36d9: c7 27 27 c7 07 07 c7 57                          -         .byte $c7,$27,$27,$c7,$07,$07,$c7,$57
36e1: 57 c7 87 c7 c7 47 47 c7                          -         .byte $57,$c7,$87,$c7,$c7,$47,$47,$c7
36e9: f7 07 c7 27 27 c7 07 07                          -         .byte $f7,$07,$c7,$27,$27,$c7,$07,$07
36f1: c7 27 27 c7 07 07 c7 27                          -         .byte $c7,$27,$27,$c7,$07,$07,$c7,$27
36f9: 27 87 87 57 57 57 57 27                          -         .byte $27,$87,$87,$57,$57,$57,$57,$27
3701: 27 a7 47 07 a7 27 27 57                          -         .byte $27,$a7,$47,$07,$a7,$27,$27,$57
3709: 57 57 57 57 57 27 47 a7                          -         .byte $57,$57,$57,$57,$57,$27,$47,$a7
3711: 27 27 a7 07 27 a7 27 27                          -         .byte $27,$27,$a7,$07,$27,$a7,$27,$27
3719: a7 27 47 a7 27 57 a7 d7                          -         .byte $a7,$27,$47,$a7,$27,$57,$a7,$d7
3721: 17 a7 47 47 a7 07 f7 a7                          -         .byte $17,$a7,$47,$47,$a7,$07,$f7,$a7
3729: 57 27 a7 47 27 a7 27 27                          -         .byte $57,$27,$a7,$47,$27,$a7,$27,$27
3731: a7 07 47 a7 27 27 a7 57                          -         .byte $a7,$07,$47,$a7,$27,$27,$a7,$57
3739: 57 a7 57 57 a7 27 47 a7                          -         .byte $57,$a7,$57,$57,$a7,$27,$47,$a7
3741: 27 27 a7 07 27 a7 27 27                          -         .byte $27,$27,$a7,$07,$27,$a7,$27,$27
3749: a7 27 47 a7 27 57 57 d7                          -         .byte $a7,$27,$47,$a7,$27,$57,$57,$d7
3751: 57 57 47 57 f7 07 a7 57                          -         .byte $57,$57,$47,$57,$f7,$07,$a7,$57
3759: 57 a7 47 07 a7 27 27 a7                          -         .byte $57,$a7,$47,$07,$a7,$27,$27,$a7
3761: e7 07 a7 27 27 a7 57 57                          -         .byte $e7,$07,$a7,$27,$27,$a7,$57,$57
3769: a7 57 57 a7 e7 27 a7 27                          -         .byte $a7,$57,$57,$a7,$e7,$27,$a7,$27
3771: 27 a7 47 07 a7 27 27 a7                          -         .byte $27,$a7,$47,$07,$a7,$27,$27,$a7
3779: e7 07 a7 27 27 a7 57 d7                          -         .byte $e7,$07,$a7,$27,$27,$a7,$57,$d7
3781: a7 47 47 a7 f7 07 a7 57                          -         .byte $a7,$47,$47,$a7,$f7,$07,$a7,$57
3789: 57 a7 47 47 a7 27 27 a7                          -         .byte $57,$a7,$47,$47,$a7,$27,$27,$a7
3791: e7 07 a7 27 27 57 57 57                          -         .byte $e7,$07,$a7,$27,$27,$57,$57,$57
3799: 57 57 57 07 e7 a7 27 27                          -         .byte $57,$57,$57,$07,$e7,$a7,$27,$27
37a1: a7 47 47 a7 27 27 a7 07                          -         .byte $a7,$47,$47,$a7,$27,$27,$a7,$07
37a9: e7 a7 27 27 a7 57 57 a7                          -         .byte $e7,$a7,$27,$27,$a7,$57,$57,$a7
37b1: 47 47 a7 f7 f7 a7 57 57                          -         .byte $47,$47,$a7,$f7,$f7,$a7,$57,$57
37b9: a7 07 47 a7 27 27 a7 07                          -         .byte $a7,$07,$47,$a7,$27,$27,$a7,$07
37c1: 67 a7 27 27 a7 57 57 a2                          -         .byte $67,$a7,$27,$27,$a7,$57,$57,$a2
37c9: 52 52 a2 02 e7 a7 27 27                          -         .byte $52,$52,$a2,$02,$e7,$a7,$27,$27
37d1: a7 07 47 a7 27 27 a7 07                          -         .byte $a7,$07,$47,$a7,$27,$27,$a7,$07
37d9: 67 a7 27 27 57 57 57 57                          -         .byte $67,$a7,$27,$27,$57,$57,$57,$57
37e1: 47 57 07 f7 a7 57 57 a7                          -         .byte $47,$57,$07,$f7,$a7,$57,$57,$a7
37e9: f7 07 a7 27 27 a7 77 07                          -         .byte $f7,$07,$a7,$27,$27,$a7,$77,$07
37f1: a7 27 27 a7 57 57 a7 57                          -         .byte $a7,$27,$27,$a7,$57,$57,$a7,$57
37f9: 57 a7 77 07 a7 27 27 5f                          -         .byte $57,$a7,$77,$07,$a7,$27,$27,$5f
3801: 93 00 ff 00 ff 80 ff 00                          -         .byte $93,$00,$ff,$00,$ff,$80,$ff,$00
3809: ff 00 ff 00 ff a0 f7 80                          -         .byte $ff,$00,$ff,$00,$ff,$a0,$f7,$80
3811: ff 00 ff 00 ff a1 df 00                          -         .byte $ff,$00,$ff,$00,$ff,$a1,$df,$00
3819: ff 00 ff 00 ff 20 fe 08                          -         .byte $ff,$00,$ff,$00,$ff,$20,$fe,$08
3821: d6 00 ff 00 ff 21 fe 00                          -         .byte $d6,$00,$ff,$00,$ff,$21,$fe,$00
3829: ff 00 ff 00 ff 20 fe 84                          -         .byte $ff,$00,$ff,$00,$ff,$20,$fe,$84
3831: fe 00 ff 00 ff 24 ff 00                          -         .byte $fe,$00,$ff,$00,$ff,$24,$ff,$00
3839: fe 00 ff 00 ff 00 fe 00                          -         .byte $fe,$00,$ff,$00,$ff,$00,$fe,$00
3841: ff 00 ff 00 ff 00 fe a1                          -         .byte $ff,$00,$ff,$00,$ff,$00,$fe,$a1
3849: f7 00 ff 00 ff 04 bf 00                          -         .byte $f7,$00,$ff,$00,$ff,$04,$bf,$00
3851: ff 00 ff 00 ff 20 ff 00                          -         .byte $ff,$00,$ff,$00,$ff,$20,$ff,$00
3859: ff 00 ff 00 ff 20 ff 88                          -         .byte $ff,$00,$ff,$00,$ff,$20,$ff,$88
3861: be 00 ff 00 ff 00 bf a0                          -         .byte $be,$00,$ff,$00,$ff,$00,$bf,$a0
3869: ff 00 ff 00 ff 20 ff 00                          -         .byte $ff,$00,$ff,$00,$ff,$20,$ff,$00
3871: 7e 00 ff 00 ff a4 fe 80                          -         .byte $7e,$00,$ff,$00,$ff,$a4,$fe,$80
3879: fe 00 ff 00 ff 80 df 80                          -         .byte $fe,$00,$ff,$00,$ff,$80,$df,$80
3881: ff 00 ff 00 ff 01 ff 00                          -         .byte $ff,$00,$ff,$00,$ff,$01,$ff,$00
3889: ff 00 ff 00 ff 00 fd 00                          -         .byte $ff,$00,$ff,$00,$ff,$00,$fd,$00
3891: df 00 ff 00 ff 00 fe 20                          -         .byte $df,$00,$ff,$00,$ff,$00,$fe,$20
3899: 7e 00 ff 00 ff 20 fc 88                          -         .byte $7e,$00,$ff,$00,$ff,$20,$fc,$88
38a1: fe 00 ff 00 ff 08 fe 22                          -         .byte $fe,$00,$ff,$00,$ff,$08,$fe,$22
38a9: fe 00 ff 00 ff 80 fe 90                          -         .byte $fe,$00,$ff,$00,$ff,$80,$fe,$90
38b1: fe 00 ff 00 ff 01 bf 00                          -         .byte $fe,$00,$ff,$00,$ff,$01,$bf,$00
38b9: 7f 00 ff 00 ff 20 ff b2                          -         .byte $7f,$00,$ff,$00,$ff,$20,$ff,$b2
38c1: fe 00 ff 00 ff 91 ee 80                          -         .byte $fe,$00,$ff,$00,$ff,$91,$ee,$80
38c9: ff 00 ff 00 ff 80 fe 20                          -         .byte $ff,$00,$ff,$00,$ff,$80,$fe,$20
38d1: ff 00 ff 00 ff 80 ef 20                          -         .byte $ff,$00,$ff,$00,$ff,$80,$ef,$20
38d9: ff 00 ff 00 ff 80 ef 00                          -         .byte $ff,$00,$ff,$00,$ff,$80,$ef,$00
38e1: df 00 ff 00 ff 80 fe 00                          -         .byte $df,$00,$ff,$00,$ff,$80,$fe,$00
38e9: ff 00 ff 00 ff 08 de 20                          -         .byte $ff,$00,$ff,$00,$ff,$08,$de,$20
38f1: ff 00 ff 00 ff 80 fe 00                          -         .byte $ff,$00,$ff,$00,$ff,$80,$fe,$00
38f9: ff 00 ff 00 ff 00 6f 55                          -         .byte $ff,$00,$ff,$00,$ff,$00,$6f,$55
3901: 05 05 c0 20 20 c0 00 00                          -         .byte $05,$05,$c0,$20,$20,$c0,$00,$00
3909: c0 20 23 c3 03 03 c3 20                          -         .byte $c0,$20,$23,$c3,$03,$03,$c3,$20
3911: 20 c0 f0 80 c4 54 54 c0                          -         .byte $20,$c0,$f0,$80,$c4,$54,$54,$c0
3919: 00 00 c0 20 20 c0 10 20                          -         .byte $00,$00,$c0,$20,$20,$c0,$10,$20
3921: c0 50 50 c3 83 83 c3 53                          -         .byte $c0,$50,$50,$c3,$83,$83,$c3,$53
3929: 50 c0 f0 80 c0 50 50 c0                          -         .byte $50,$c0,$f0,$80,$c0,$50,$50,$c0
3931: 00 03 c3 20 21 c1 01 01                          -         .byte $00,$03,$c3,$20,$21,$c1,$01,$01
3939: c1 20 20 c0 00 00 c0 20                          -         .byte $c1,$20,$20,$c0,$00,$00,$c0,$20
3941: 20 00 f3 83 50 51 51 01                          -         .byte $20,$00,$f3,$83,$50,$51,$51,$01
3949: 01 c1 20 20 c0 00 10 c0                          -         .byte $01,$c1,$20,$20,$c0,$00,$10,$c0
3951: 50 50 c0 91 80 c3 53 53                          -         .byte $50,$50,$c0,$91,$80,$c3,$53,$53
3959: c3 03 f0 c0 50 50 c0 00                          -         .byte $c3,$03,$f0,$c0,$50,$50,$c0,$00
3961: 00 c0 20 27 c7 07 07 c7                          -         .byte $00,$c0,$20,$27,$c7,$07,$07,$c7
3969: 27 27 c7 07 07 c7 27 27                          -         .byte $27,$27,$c7,$07,$07,$c7,$27,$27
3971: c7 07 f7 c7 57 57 c7 07                          -         .byte $c7,$07,$f7,$c7,$57,$57,$c7,$07
3979: 07 c7 27 27 c7 07 17 c7                          -         .byte $07,$c7,$27,$27,$c7,$07,$17,$c7
3981: 57 57 c7 97 87 c7 57 57                          -         .byte $57,$57,$c7,$97,$87,$c7,$57,$57
3989: 97 07 f7 57 57 57 07 07                          -         .byte $97,$07,$f7,$57,$57,$57,$07,$07
3991: c7 27 27 c7 07 07 c7 27                          -         .byte $c7,$27,$27,$c7,$07,$07,$c7,$27
3999: 27 c7 07 07 c7 27 27 c7                          -         .byte $27,$c7,$07,$07,$c7,$27,$27,$c7
39a1: c7 07 c7 57 57 c7 07 07                          -         .byte $c7,$07,$c7,$57,$57,$c7,$07,$07
39a9: c7 27 27 c7 07 07 c7 57                          -         .byte $c7,$27,$27,$c7,$07,$07,$c7,$57
39b1: 57 c7 47 d7 c7 57 57 c7                          -         .byte $57,$c7,$47,$d7,$c7,$57,$57,$c7
39b9: 97 07 c7 57 57 c7 07 07                          -         .byte $97,$07,$c7,$57,$57,$c7,$07,$07
39c1: c7 27 27 c7 07 07 c7 27                          -         .byte $c7,$27,$27,$c7,$07,$07,$c7,$27
39c9: 27 c7 07 07 c7 27 27 d7                          -         .byte $27,$c7,$07,$07,$c7,$27,$27,$d7
39d1: 87 07 57 57 57 07 07 c7                          -         .byte $87,$07,$57,$57,$57,$07,$07,$c7
39d9: 27 27 c7 07 07 c7 27 57                          -         .byte $27,$27,$c7,$07,$07,$c7,$27,$57
39e1: c7 67 47 c7 57 57 c7 37                          -         .byte $c7,$67,$47,$c7,$57,$57,$c7,$37
39e9: 97 c7 47 57 c7 07 07 c7                          -         .byte $97,$c7,$47,$57,$c7,$07,$07,$c7
39f1: 27 27 c7 07 07 c7 27 27                          -         .byte $27,$27,$c7,$07,$07,$c7,$27,$27
39f9: c7 07 07 c7 27 27 c7 27                          -         .byte $c7,$07,$07,$c7,$27,$27,$c7,$27
3a01: c7 07 07 c7 27 27 c7 07                          -         .byte $c7,$07,$07,$c7,$27,$27,$c7,$07
3a09: 07 c7 27 27 c7 87 87 c7                          -         .byte $07,$c7,$27,$27,$c7,$87,$87,$c7
3a11: 57 57 c7 07 07 c7 27 27                          -         .byte $57,$57,$c7,$07,$07,$c7,$27,$27
3a19: c7 07 07 c7 27 57 c7 37                          -         .byte $c7,$07,$07,$c7,$27,$57,$c7,$37
3a21: 47 c7 57 57 57 17 17 57                          -         .byte $47,$c7,$57,$57,$57,$17,$17,$57
3a29: 47 57 07 07 c7 27 27 c7                          -         .byte $47,$57,$07,$07,$c7,$27,$27,$c7
3a31: 07 07 c7 27 27 c7 07 07                          -         .byte $07,$07,$c7,$27,$27,$c7,$07,$07
3a39: c7 27 27 c7 87 87 c7 57                          -         .byte $c7,$27,$27,$c7,$87,$87,$c7,$57
3a41: 57 c7 07 07 c7 27 27 c7                          -         .byte $57,$c7,$07,$07,$c7,$27,$27,$c7
3a49: 07 07 c7 27 27 c7 17 37                          -         .byte $07,$07,$c7,$27,$27,$c7,$17,$37
3a51: c7 57 57 c7 47 17 c7 47                          -         .byte $c7,$57,$57,$c7,$47,$17,$c7,$47
3a59: 47 c7 07 07 c7 27 27 c7                          -         .byte $47,$c7,$07,$07,$c7,$27,$27,$c7
3a61: 07 07 c7 27 27 c7 07 07                          -         .byte $07,$07,$c7,$27,$27,$c7,$07,$07
3a69: c7 27 27 77 87 87 57 57                          -         .byte $c7,$27,$27,$77,$87,$87,$57,$57
3a71: 57 07 07 c7 27 27 c7 07                          -         .byte $57,$07,$07,$c7,$27,$27,$c7,$07
3a79: 07 c7 27 27 c7 07 17 c7                          -         .byte $07,$c7,$27,$27,$c7,$07,$17,$c7
3a81: 57 57 c7 c7 47 c7 47 47                          -         .byte $57,$57,$c7,$c7,$47,$c7,$47,$47
3a89: c7 07 07 c7 27 27 c7 07                          -         .byte $c7,$07,$07,$c7,$27,$27,$c7,$07
3a91: 07 c7 27 27 c7 07 07 c7                          -         .byte $07,$c7,$27,$27,$c7,$07,$07,$c7
3a99: 27 27 c7 57 87 c7 57 57                          -         .byte $27,$27,$c7,$57,$87,$c7,$57,$57
3aa1: c7 07 07 c7 27 27 c7 07                          -         .byte $c7,$07,$07,$c7,$27,$27,$c7,$07
3aa9: 07 c7 27 27 c7 07 17 c7                          -         .byte $07,$c7,$27,$27,$c7,$07,$17,$c7
3ab1: 57 57 97 c7 47 57 47 57                          -         .byte $57,$57,$97,$c7,$47,$57,$47,$57
3ab9: f7 07 c7 27 27 c7 07 07                          -         .byte $f7,$07,$c7,$27,$27,$c7,$07,$07
3ac1: c7 27 27 c7 07 07 c7 27                          -         .byte $c7,$27,$27,$c7,$07,$07,$c7,$27
3ac9: 27 c7 87 77 c7 57 57 c7                          -         .byte $27,$c7,$87,$77,$c7,$57,$57,$c7
3ad1: 07 07 c7 27 27 c7 07 07                          -         .byte $07,$07,$c7,$27,$27,$c7,$07,$07
3ad9: c7 27 27 c7 07 07 c7 57                          -         .byte $c7,$27,$27,$c7,$07,$07,$c7,$57
3ae1: 57 c7 87 c7 c7 47 47 c7                          -         .byte $57,$c7,$87,$c7,$c7,$47,$47,$c7
3ae9: f7 07 c7 27 27 c7 07 07                          -         .byte $f7,$07,$c7,$27,$27,$c7,$07,$07
3af1: c7 27 27 c7 07 07 c7 27                          -         .byte $c7,$27,$27,$c7,$07,$07,$c7,$27
3af9: 27 87 87 57 57 57 57 27                          -         .byte $27,$87,$87,$57,$57,$57,$57,$27
3b01: 27 a7 47 07 a7 27 27 57                          -         .byte $27,$a7,$47,$07,$a7,$27,$27,$57
3b09: 57 57 57 57 57 27 47 a7                          -         .byte $57,$57,$57,$57,$57,$27,$47,$a7
3b11: 27 27 a7 07 27 a7 27 27                          -         .byte $27,$27,$a7,$07,$27,$a7,$27,$27
3b19: a7 27 47 a7 27 57 a7 d7                          -         .byte $a7,$27,$47,$a7,$27,$57,$a7,$d7
3b21: 17 a7 47 47 a7 07 f7 a7                          -         .byte $17,$a7,$47,$47,$a7,$07,$f7,$a7
3b29: 57 27 a7 47 27 a7 27 27                          -         .byte $57,$27,$a7,$47,$27,$a7,$27,$27
3b31: a7 07 47 a7 27 27 a7 57                          -         .byte $a7,$07,$47,$a7,$27,$27,$a7,$57
3b39: 57 a7 57 57 a7 27 47 a7                          -         .byte $57,$a7,$57,$57,$a7,$27,$47,$a7
3b41: 27 27 a7 07 27 a7 27 27                          -         .byte $27,$27,$a7,$07,$27,$a7,$27,$27
3b49: a7 27 47 a7 27 57 57 d7                          -         .byte $a7,$27,$47,$a7,$27,$57,$57,$d7
3b51: 57 57 47 57 f7 07 a7 57                          -         .byte $57,$57,$47,$57,$f7,$07,$a7,$57
3b59: 57 a7 47 07 a7 27 27 a7                          -         .byte $57,$a7,$47,$07,$a7,$27,$27,$a7
3b61: e7 07 a7 27 27 a7 57 57                          -         .byte $e7,$07,$a7,$27,$27,$a7,$57,$57
3b69: a7 57 57 a7 e7 27 a7 27                          -         .byte $a7,$57,$57,$a7,$e7,$27,$a7,$27
3b71: 27 a7 47 07 a7 27 27 a7                          -         .byte $27,$a7,$47,$07,$a7,$27,$27,$a7
3b79: e7 07 a7 27 27 a7 57 d7                          -         .byte $e7,$07,$a7,$27,$27,$a7,$57,$d7
3b81: a7 47 47 a7 f7 07 a7 57                          -         .byte $a7,$47,$47,$a7,$f7,$07,$a7,$57
3b89: 57 a7 47 47 a7 27 27 a7                          -         .byte $57,$a7,$47,$47,$a7,$27,$27,$a7
3b91: e7 07 a7 27 27 57 57 57                          -         .byte $e7,$07,$a7,$27,$27,$57,$57,$57
3b99: 57 57 57 07 e7 a7 27 27                          -         .byte $57,$57,$57,$07,$e7,$a7,$27,$27
3ba1: a7 47 47 a7 27 27 a7 07                          -         .byte $a7,$47,$47,$a7,$27,$27,$a7,$07
3ba9: e7 a7 27 27 a7 57 57 a7                          -         .byte $e7,$a7,$27,$27,$a7,$57,$57,$a7
3bb1: 47 47 a7 f7 f7 a7 57 57                          -         .byte $47,$47,$a7,$f7,$f7,$a7,$57,$57
3bb9: a7 07 47 a7 27 27 a7 07                          -         .byte $a7,$07,$47,$a7,$27,$27,$a7,$07
3bc1: 67 a7 27 27 a7 57 57 a2                          -         .byte $67,$a7,$27,$27,$a7,$57,$57,$a2
3bc9: 52 52 a2 02 e7 a7 27 27                          -         .byte $52,$52,$a2,$02,$e7,$a7,$27,$27
3bd1: a7 07 47 a7 27 27 a7 07                          -         .byte $a7,$07,$47,$a7,$27,$27,$a7,$07
3bd9: 67 a7 27 27 57 57 57 57                          -         .byte $67,$a7,$27,$27,$57,$57,$57,$57
3be1: 47 57 07 f7 a7 57 57 a7                          -         .byte $47,$57,$07,$f7,$a7,$57,$57,$a7
3be9: f7 07 a7 27 27 a7 77 07                          -         .byte $f7,$07,$a7,$27,$27,$a7,$77,$07
3bf1: a7 27 27 a7 57 57 a7 57                          -         .byte $a7,$27,$27,$a7,$57,$57,$a7,$57
3bf9: 57 a7 77 07 a7 27 27 03                          -         .byte $57,$a7,$77,$07,$a7,$27,$27,$03
3c01: 00 03 06 00 ff 00 ef 20                          -         .byte $00,$03,$06,$00,$ff,$00,$ef,$20
3c09: 9f 00 ff 00 ff 20 f7 03                          -         .byte $9f,$00,$ff,$00,$ff,$20,$f7,$03
3c11: 00 03 00 00 ff 00 a5 06                          -         .byte $00,$03,$00,$00,$ff,$00,$a5,$06
3c19: ff 00 ff 00 ff 00 af 20                          -         .byte $ff,$00,$ff,$00,$ff,$00,$af,$20
3c21: ff 00 ff 00 ff 00 a7 20                          -         .byte $ff,$00,$ff,$00,$ff,$00,$a7,$20
3c29: f7 00 ff 00 ff 00 b7 20                          -         .byte $f7,$00,$ff,$00,$ff,$00,$b7,$20
3c31: ff 00 ff 00 ff 91 af 40                          -         .byte $ff,$00,$ff,$00,$ff,$91,$af,$40
3c39: af 00 ff 00 ff 00 b7 01                          -         .byte $af,$00,$ff,$00,$ff,$00,$b7,$01
3c41: ff 00 ff 00 ff 82 f7 00                          -         .byte $ff,$00,$ff,$00,$ff,$82,$f7,$00
3c49: ff 00 ff 00 ff 00 bf 00                          -         .byte $ff,$00,$ff,$00,$ff,$00,$bf,$00
3c51: f7 00 ff 00 ff 20 df 80                          -         .byte $f7,$00,$ff,$00,$ff,$20,$df,$80
3c59: af 00 ff 00 ff 00 ff 00                          -         .byte $af,$00,$ff,$00,$ff,$00,$ff,$00
3c61: f7 00 ff 00 ff 10 ef 00                          -         .byte $f7,$00,$ff,$00,$ff,$10,$ef,$00
3c69: f7 00 ff 00 ff 02 ef 40                          -         .byte $f7,$00,$ff,$00,$ff,$02,$ef,$40
3c71: e7 00 ff 00 ff a0 fd 02                          -         .byte $e7,$00,$ff,$00,$ff,$a0,$fd,$02
3c79: ff 00 ff 00 ff 00 f6 09                          -         .byte $ff,$00,$ff,$00,$ff,$00,$f6,$09
3c81: bf 00 ff 00 ff 10 ff 00                          -         .byte $bf,$00,$ff,$00,$ff,$10,$ff,$00
3c89: ff 00 ff 00 ff 00 e9 20                          -         .byte $ff,$00,$ff,$00,$ff,$00,$e9,$20
3c91: ef 00 ff 00 ff 00 f7 00                          -         .byte $ef,$00,$ff,$00,$ff,$00,$f7,$00
3c99: ff 00 ff 00 ff 00 f7 00                          -         .byte $ff,$00,$ff,$00,$ff,$00,$f7,$00
3ca1: bf 00 ff 00 ff 00 ad 00                          -         .byte $bf,$00,$ff,$00,$ff,$00,$ad,$00
3ca9: bf 00 ff 00 ff 00 8f 00                          -         .byte $bf,$00,$ff,$00,$ff,$00,$8f,$00
3cb1: bf 00 ff 00 ff 00 ff 02                          -         .byte $bf,$00,$ff,$00,$ff,$00,$ff,$02
3cb9: b7 00 ff 00 ff 81 a7 00                          -         .byte $b7,$00,$ff,$00,$ff,$81,$a7,$00
3cc1: ff 00 ff 00 ff 80 ed 00                          -         .byte $ff,$00,$ff,$00,$ff,$80,$ed,$00
3cc9: ba 00 ff 00 ff 00 f7 00                          -         .byte $ba,$00,$ff,$00,$ff,$00,$f7,$00
3cd1: e7 00 ff 00 ff 80 ff 42                          -         .byte $e7,$00,$ff,$00,$ff,$80,$ff,$42
3cd9: ef 00 ff 00 ff 00 af 52                          -         .byte $ef,$00,$ff,$00,$ff,$00,$af,$52
3ce1: e5 00 ff 00 ff 20 bf 00                          -         .byte $e5,$00,$ff,$00,$ff,$20,$bf,$00
3ce9: ff 00 ff 00 ff 00 ff 1a                          -         .byte $ff,$00,$ff,$00,$ff,$00,$ff,$1a
3cf1: af 00 ff 00 ff 00 f7 01                          -         .byte $af,$00,$ff,$00,$ff,$00,$f7,$01
3cf9: e6 00 ff 00 ff 0a ff ec                          -         .byte $e6,$00,$ff,$00,$ff,$0a,$ff,$ec
3d01: 86 00 ff 00 ff 00 ff 19                          -         .byte $86,$00,$ff,$00,$ff,$00,$ff,$19
3d09: f9 00 ff 00 ff 12 ff 16                          -         .byte $f9,$00,$ff,$00,$ff,$12,$ff,$16
3d11: fd 00 ff 00 ff 12 fe 00                          -         .byte $fd,$00,$ff,$00,$ff,$12,$fe,$00
3d19: f6 00 ff 00 ff 10 ff 00                          -         .byte $f6,$00,$ff,$00,$ff,$10,$ff,$00
3d21: fb 00 ff 00 ff 20 f5 01                          -         .byte $fb,$00,$ff,$00,$ff,$20,$f5,$01
3d29: ff 00 ff 00 ff 52 ff 10                          -         .byte $ff,$00,$ff,$00,$ff,$52,$ff,$10
3d31: fd 00 ff 00 ff 90 ff 00                          -         .byte $fd,$00,$ff,$00,$ff,$90,$ff,$00
3d39: fb 00 ff 00 ff 18 bd 10                          -         .byte $fb,$00,$ff,$00,$ff,$18,$bd,$10
3d41: 7b 00 ff 00 ff 10 ff 10                          -         .byte $7b,$00,$ff,$00,$ff,$10,$ff,$10
3d49: fb 00 ff 00 ff 10 fb 12                          -         .byte $fb,$00,$ff,$00,$ff,$10,$fb,$12
3d51: ff 00 ff 00 ff 00 fd 10                          -         .byte $ff,$00,$ff,$00,$ff,$00,$fd,$10
3d59: fb 00 ff 00 ff 02 cf 00                          -         .byte $fb,$00,$ff,$00,$ff,$02,$cf,$00
3d61: ff 00 ff 00 ff 18 fd 00                          -         .byte $ff,$00,$ff,$00,$ff,$18,$fd,$00
3d69: ff 00 ff 00 ff 02 ff 10                          -         .byte $ff,$00,$ff,$00,$ff,$02,$ff,$10
3d71: ff 00 ff 00 ff 01 ef 12                          -         .byte $ff,$00,$ff,$00,$ff,$01,$ef,$12
3d79: ff 00 ff 00 ff 02 f9 12                          -         .byte $ff,$00,$ff,$00,$ff,$02,$f9,$12
3d81: fb 00 ff 00 ff 10 fb 12                          -         .byte $fb,$00,$ff,$00,$ff,$10,$fb,$12
3d89: ff 00 ff 00 ff 0a ff 12                          -         .byte $ff,$00,$ff,$00,$ff,$0a,$ff,$12
3d91: ff 00 ff 00 ff 10 ff 06                          -         .byte $ff,$00,$ff,$00,$ff,$10,$ff,$06
3d99: fc 00 ff 00 ff 00 f3 00                          -         .byte $fc,$00,$ff,$00,$ff,$00,$f3,$00
3da1: f9 00 ff 00 ff 20 fd 12                          -         .byte $f9,$00,$ff,$00,$ff,$20,$fd,$12
3da9: f3 00 ff 00 ff 90 ff 12                          -         .byte $f3,$00,$ff,$00,$ff,$90,$ff,$12
3db1: f9 00 ff 00 ff 12 ff 10                          -         .byte $f9,$00,$ff,$00,$ff,$12,$ff,$10
3db9: fd 00 ff 00 ff 02 fb 12                          -         .byte $fd,$00,$ff,$00,$ff,$02,$fb,$12
3dc1: fb 00 ff 00 ff 00 fb 12                          -         .byte $fb,$00,$ff,$00,$ff,$00,$fb,$12
3dc9: fe 00 ff 00 ff 02 f7 00                          -         .byte $fe,$00,$ff,$00,$ff,$02,$f7,$00
3dd1: fa 00 ff 00 ff 13 fb 10                          -         .byte $fa,$00,$ff,$00,$ff,$13,$fb,$10
3dd9: ff 00 ff 00 ff 10 f9 10                          -         .byte $ff,$00,$ff,$00,$ff,$10,$f9,$10
3de1: fb 00 ff 00 ff 10 fd 12                          -         .byte $fb,$00,$ff,$00,$ff,$10,$fd,$12
3de9: fa 00 ff 00 ff 11 f7 80                          -         .byte $fa,$00,$ff,$00,$ff,$11,$f7,$80
3df1: ff 00 ff 00 ff 04 ff 00                          -         .byte $ff,$00,$ff,$00,$ff,$04,$ff,$00
3df9: ff 00 ff 00 ff 00 7a ef                          -         .byte $ff,$00,$ff,$00,$ff,$00,$7a,$ef
3e01: ca 00 ff 00 ff 00 ff 00                          -         .byte $ca,$00,$ff,$00,$ff,$00,$ff,$00
3e09: ff 00 ff 00 ff 00 7f 00                          -         .byte $ff,$00,$ff,$00,$ff,$00,$7f,$00
3e11: ff 00 ff 00 ff 00 fd 00                          -         .byte $ff,$00,$ff,$00,$ff,$00,$fd,$00
3e19: ff 00 ff 00 ff 02 fd 08                          -         .byte $ff,$00,$ff,$00,$ff,$02,$fd,$08
3e21: ff 00 ff 00 ff 00 fd 02                          -         .byte $ff,$00,$ff,$00,$ff,$00,$fd,$02
3e29: f7 00 ff 00 ff 00 ff 00                          -         .byte $f7,$00,$ff,$00,$ff,$00,$ff,$00
3e31: ff 00 ff 00 ff 00 ff 00                          -         .byte $ff,$00,$ff,$00,$ff,$00,$ff,$00
3e39: ff 00 ff 00 ff 00 f3 00                          -         .byte $ff,$00,$ff,$00,$ff,$00,$f3,$00
3e41: ff 00 ff 00 ff 20 ff 00                          -         .byte $ff,$00,$ff,$00,$ff,$20,$ff,$00
3e49: ff 00 ff 00 ff 01 ff 00                          -         .byte $ff,$00,$ff,$00,$ff,$01,$ff,$00
3e51: f7 00 ff 00 ff 02 f7 00                          -         .byte $f7,$00,$ff,$00,$ff,$02,$f7,$00
3e59: ff 00 ff 00 ff 00 f5 00                          -         .byte $ff,$00,$ff,$00,$ff,$00,$f5,$00
3e61: bf 00 ff 00 ff 00 ff 10                          -         .byte $bf,$00,$ff,$00,$ff,$00,$ff,$10
3e69: f7 00 ff 00 ff 00 fd 00                          -         .byte $f7,$00,$ff,$00,$ff,$00,$fd,$00
3e71: 67 00 ff 00 ff 08 f5 00                          -         .byte $67,$00,$ff,$00,$ff,$08,$f5,$00
3e79: b7 00 ff 00 ff a5 ff 00                          -         .byte $b7,$00,$ff,$00,$ff,$a5,$ff,$00
3e81: f5 00 ff 00 ff 00 f5 00                          -         .byte $f5,$00,$ff,$00,$ff,$00,$f5,$00
3e89: f7 00 ff 00 ff 00 ff 00                          -         .byte $f7,$00,$ff,$00,$ff,$00,$ff,$00
3e91: fd 00 ff 00 ff 02 f7 00                          -         .byte $fd,$00,$ff,$00,$ff,$02,$f7,$00
3e99: f7 00 ff 00 ff 00 f7 00                          -         .byte $f7,$00,$ff,$00,$ff,$00,$f7,$00
3ea1: f7 00 ff 00 ff 00 f7 10                          -         .byte $f7,$00,$ff,$00,$ff,$00,$f7,$10
3ea9: ff 00 ff 00 ff 00 bf 80                          -         .byte $ff,$00,$ff,$00,$ff,$00,$bf,$80
3eb1: ff 00 ff 00 ff 00 fd 40                          -         .byte $ff,$00,$ff,$00,$ff,$00,$fd,$40
3eb9: f5 00 ff 00 ff 14 fd 00                          -         .byte $f5,$00,$ff,$00,$ff,$14,$fd,$00
3ec1: f7 00 ff 00 ff 08 f7 01                          -         .byte $f7,$00,$ff,$00,$ff,$08,$f7,$01
3ec9: ef 00 ff 00 ff 00 f7 00                          -         .byte $ef,$00,$ff,$00,$ff,$00,$f7,$00
3ed1: ff 00 ff 00 ff 10 f7 01                          -         .byte $ff,$00,$ff,$00,$ff,$10,$f7,$01
3ed9: ff 00 ff 00 ff 00 f5 50                          -         .byte $ff,$00,$ff,$00,$ff,$00,$f5,$50
3ee1: fd 00 ff 00 ff 01 f7 00                          -         .byte $fd,$00,$ff,$00,$ff,$01,$f7,$00
3ee9: fd 00 ff 00 ff 04 fd 00                          -         .byte $fd,$00,$ff,$00,$ff,$04,$fd,$00
3ef1: ff 00 ff 00 ff 00 ff 00                          -         .byte $ff,$00,$ff,$00,$ff,$00,$ff,$00
3ef9: 7f 00 ff 00 ff 92 ff ff                          -         .byte $7f,$00,$ff,$00,$ff,$92,$ff,$ff
3f01: d5 00 ff 00 ff 00 00 00                          -         .byte $d5,$00,$ff,$00,$ff,$00,$00,$00
3f09: 00 00 ff 00 ff 00 00 00                          -         .byte $00,$00,$ff,$00,$ff,$00,$00,$00
3f11: 00 00 ff 00 ff 00 00 20                          -         .byte $00,$00,$ff,$00,$ff,$00,$00,$20
3f19: 00 00 ff 00 ff 00 00 00                          -         .byte $00,$00,$ff,$00,$ff,$00,$00,$00
3f21: 00 00 ff 00 ff 00 00 00                          -         .byte $00,$00,$ff,$00,$ff,$00,$00,$00
3f29: 00 00 ff 00 ff 00 00 00                          -         .byte $00,$00,$ff,$00,$ff,$00,$00,$00
3f31: 00 00 ff 00 ff 00 00 00                          -         .byte $00,$00,$ff,$00,$ff,$00,$00,$00
3f39: 00 00 ff 00 ff 20 00 00                          -         .byte $00,$00,$ff,$00,$ff,$20,$00,$00
3f41: 00 00 ff 00 ff 00 00 00                          -         .byte $00,$00,$ff,$00,$ff,$00,$00,$00
3f49: 20 00 ff 00 ff 40 00 00                          -         .byte $20,$00,$ff,$00,$ff,$40,$00,$00
3f51: 00 00 fb 00 ff 40 00 80                          -         .byte $00,$00,$fb,$00,$ff,$40,$00,$80
3f59: 00 00 ff 00 ff 00 00 00                          -         .byte $00,$00,$ff,$00,$ff,$00,$00,$00
3f61: 00 00 ff 00 ff 00 80 00                          -         .byte $00,$00,$ff,$00,$ff,$00,$80,$00
3f69: 00 00 ff 00 ff 00 00 00                          -         .byte $00,$00,$ff,$00,$ff,$00,$00,$00
3f71: 00 00 ff 00 ff 00 00 00                          -         .byte $00,$00,$ff,$00,$ff,$00,$00,$00
3f79: 02 00 ff 00 ff 00 00 00                          -         .byte $02,$00,$ff,$00,$ff,$00,$00,$00
3f81: 00 00 ff 00 ff 00 00 00                          -         .byte $00,$00,$ff,$00,$ff,$00,$00,$00
3f89: 00 00 ff 00 ff 60 01 00                          -         .byte $00,$00,$ff,$00,$ff,$60,$01,$00
3f91: 00 00 ff 00 ff 00 00 08                          -         .byte $00,$00,$ff,$00,$ff,$00,$00,$08
3f99: 00 00 ff 00 ff 04 00 00                          -         .byte $00,$00,$ff,$00,$ff,$04,$00,$00
3fa1: 00 00 ff 00 ff 00 00 08                          -         .byte $00,$00,$ff,$00,$ff,$00,$00,$08
3fa9: 00 00 ff 00 ff 00 00 00                          -         .byte $00,$00,$ff,$00,$ff,$00,$00,$00
3fb1: 00 00 ff 00 ff 00 00 00                          -         .byte $00,$00,$ff,$00,$ff,$00,$00,$00
3fb9: 00 00 ff 00 ff 00 00 11                          -         .byte $00,$00,$ff,$00,$ff,$00,$00,$11
3fc1: 00 00 ff 00 ff 00 00 00                          -         .byte $00,$00,$ff,$00,$ff,$00,$00,$00
3fc9: 00 00 ff 00 ff 00 00 00                          -         .byte $00,$00,$ff,$00,$ff,$00,$00,$00
3fd1: 00 00 ff 00 ff 00 00 00                          -         .byte $00,$00,$ff,$00,$ff,$00,$00,$00
3fd9: 00 00 ff 00 ff 00 00 00                          -         .byte $00,$00,$ff,$00,$ff,$00,$00,$00
3fe1: 00 00 ff 00 ff 00 00 00                          -         .byte $00,$00,$ff,$00,$ff,$00,$00,$00
3fe9: 00 00 ff 00 ff 00 00 00                          -         .byte $00,$00,$ff,$00,$ff,$00,$00,$00
3ff1: 02 00 ff 00 ff 01 00 00                          -         .byte $02,$00,$ff,$00,$ff,$01,$00,$00
3ff9: 00 00 ff 00 ff 00 ff                             -         .byte $00,$00,$ff,$00,$ff,$00,$ff
